Component: ARM Compiler 5.05 update 1 (build 106) Tool: armlink [4d0efa]

==============================================================================

Section Cross References

    main.o(.text) refers to text.o(.text) for Show_Str
    main.o(.text) refers to exfuns.o(.text) for exf_getfree
    main.o(.text) refers to ff.o(.text) for f_open
    main.o(.text) refers to lcd.o(.text) for LCD_ShowString
    main.o(.text) refers to delay.o(.text) for delay_ms
    main.o(.text) refers to usb_hcd.o(.text) for HCD_IsDeviceConnected
    main.o(.text) refers to misc.o(.text) for NVIC_PriorityGroupConfig
    main.o(.text) refers to usart.o(.text) for uart_init
    main.o(.text) refers to led.o(.text) for LED_Init
    main.o(.text) refers to key.o(.text) for KEY_Init
    main.o(.text) refers to w25qxx.o(.text) for W25QXX_Init
    main.o(.text) refers to mma8452q.o(.text) for MMA_Init
    main.o(.text) refers to malloc.o(.text) for my_mem_init
    main.o(.text) refers to piclib.o(.text) for piclib_init
    main.o(.text) refers to stm32f4xx_usart.o(.text) for USART_SendData
    main.o(.text) refers to main.o(.bss) for .bss
    main.o(.text) refers to main.o(.data) for .data
    main.o(.text) refers to lcd.o(.data) for POINT_COLOR
    main.o(.text) refers to usmart_config.o(.data) for usmart_dev
    main.o(.text) refers to exfuns.o(.bss) for fs
    main.o(.text) refers to usart.o(.bss) for USART6_RX_BUF
    main.o(.text) refers to usart.o(.data) for USART6_RX_STA
    main.o(.constdata) refers to arm_common_tables.o(.constdata) for twiddleCoef_16
    main.o(.constdata) refers to arm_common_tables.o(.constdata) for armBitRevIndexTable16
    main.o(.constdata) refers to arm_common_tables.o(.constdata) for twiddleCoef_32
    main.o(.constdata) refers to arm_common_tables.o(.constdata) for armBitRevIndexTable32
    main.o(.constdata) refers to arm_common_tables.o(.constdata) for twiddleCoef_64
    main.o(.constdata) refers to arm_common_tables.o(.constdata) for armBitRevIndexTable64
    main.o(.constdata) refers to arm_common_tables.o(.constdata) for twiddleCoef_128
    main.o(.constdata) refers to arm_common_tables.o(.constdata) for armBitRevIndexTable128
    main.o(.constdata) refers to arm_common_tables.o(.constdata) for twiddleCoef_256
    main.o(.constdata) refers to arm_common_tables.o(.constdata) for armBitRevIndexTable256
    main.o(.constdata) refers to arm_common_tables.o(.constdata) for twiddleCoef_512
    main.o(.constdata) refers to arm_common_tables.o(.constdata) for armBitRevIndexTable512
    main.o(.constdata) refers to arm_common_tables.o(.constdata) for twiddleCoef_1024
    main.o(.constdata) refers to arm_common_tables.o(.constdata) for armBitRevIndexTable1024
    main.o(.constdata) refers to arm_common_tables.o(.constdata) for twiddleCoef_2048
    main.o(.constdata) refers to arm_common_tables.o(.constdata) for armBitRevIndexTable2048
    main.o(.constdata) refers to arm_common_tables.o(.constdata) for twiddleCoef_4096
    main.o(.constdata) refers to arm_common_tables.o(.constdata) for armBitRevIndexTable4096
    system_stm32f4xx.o(.text) refers to system_stm32f4xx.o(.data) for .data
    led.o(.text) refers to stm32f4xx_rcc.o(.text) for RCC_AHB1PeriphClockCmd
    led.o(.text) refers to stm32f4xx_gpio.o(.text) for GPIO_Init
    key.o(.text) refers to stm32f4xx_rcc.o(.text) for RCC_AHB1PeriphClockCmd
    key.o(.text) refers to stm32f4xx_gpio.o(.text) for GPIO_Init
    key.o(.text) refers to delay.o(.text) for delay_ms
    key.o(.text) refers to key.o(.data) for .data
    lcd.o(.text) refers to _printf_percent.o(.ARM.Collect$$_printf_percent$$00000000) for _printf_percent
    lcd.o(.text) refers to _printf_x.o(.ARM.Collect$$_printf_percent$$0000000C) for _printf_x
    lcd.o(.text) refers to _printf_hex_int.o(.text) for _printf_longlong_hex
    lcd.o(.text) refers to delay.o(.text) for delay_us
    lcd.o(.text) refers to lcd.o(.bss) for .bss
    lcd.o(.text) refers to dflt_clz.o(x$fpl$dfltu) for __aeabi_ui2d
    lcd.o(.text) refers to dmul.o(x$fpl$dmul) for __aeabi_dmul
    lcd.o(.text) refers to dfixu.o(x$fpl$dfixu) for __aeabi_d2uiz
    lcd.o(.text) refers to lcd.o(.data) for .data
    lcd.o(.text) refers to stm32f4xx_rcc.o(.text) for RCC_AHB1PeriphClockCmd
    lcd.o(.text) refers to stm32f4xx_gpio.o(.text) for GPIO_Init
    lcd.o(.text) refers to stm32f4xx_fsmc.o(.text) for FSMC_NORSRAMInit
    lcd.o(.text) refers to noretval__2printf.o(.text) for __2printf
    lcd.o(.text) refers to lcd.o(.constdata) for .constdata
    myiic.o(.text) refers to stm32f4xx_rcc.o(.text) for RCC_AHB1PeriphClockCmd
    myiic.o(.text) refers to stm32f4xx_gpio.o(.text) for GPIO_Init
    myiic.o(.text) refers to delay.o(.text) for delay_us
    mpu6050.o(.text) refers to myiic.o(.text) for IIC_Start
    mpu6050.o(.text) refers to delay.o(.text) for delay_ms
    mpu6050.o(.text) refers to dflt_clz.o(x$fpl$dflt) for __aeabi_i2d
    mpu6050.o(.text) refers to ddiv.o(x$fpl$ddiv) for __aeabi_ddiv
    mpu6050.o(.text) refers to daddsub_clz.o(x$fpl$dadd) for __aeabi_dadd
    mpu6050.o(.text) refers to d2f.o(x$fpl$d2f) for __aeabi_d2f
    inv_mpu.o(.text) refers to _printf_pad.o(.text) for _printf_pre_padding
    inv_mpu.o(.text) refers to _printf_percent.o(.ARM.Collect$$_printf_percent$$00000000) for _printf_percent
    inv_mpu.o(.text) refers to _printf_x.o(.ARM.Collect$$_printf_percent$$0000000C) for _printf_x
    inv_mpu.o(.text) refers to _printf_hex_int.o(.text) for _printf_longlong_hex
    inv_mpu.o(.text) refers to _printf_d.o(.ARM.Collect$$_printf_percent$$00000009) for _printf_d
    inv_mpu.o(.text) refers to _printf_dec.o(.text) for _printf_int_dec
    inv_mpu.o(.text) refers to mpu6050.o(.text) for MPU_Write_Len
    inv_mpu.o(.text) refers to noretval__2printf.o(.text) for __2printf
    inv_mpu.o(.text) refers to delay.o(.text) for delay_ms
    inv_mpu.o(.text) refers to inv_mpu.o(.data) for .data
    inv_mpu.o(.text) refers to inv_mpu.o(.conststring) for .conststring
    inv_mpu.o(.text) refers to llsdiv.o(.text) for __aeabi_ldivmod
    inv_mpu.o(.text) refers to memcmp.o(.text) for memcmp
    inv_mpu.o(.text) refers to inv_mpu_dmp_motion_driver.o(.text) for dmp_set_gyro_bias
    inv_mpu.o(.text) refers to myiic.o(.text) for IIC_Init
    inv_mpu.o(.text) refers to f2d.o(x$fpl$f2d) for __aeabi_f2d
    inv_mpu.o(.text) refers to asin.o(i.__hardfp_asin) for __hardfp_asin
    inv_mpu.o(.text) refers to dmul.o(x$fpl$dmul) for __aeabi_dmul
    inv_mpu.o(.text) refers to d2f.o(x$fpl$d2f) for __aeabi_d2f
    inv_mpu.o(.text) refers to atan2.o(i.__hardfp_atan2) for __hardfp_atan2
    inv_mpu.o(.data) refers to inv_mpu.o(.constdata) for reg
    inv_mpu.o(.data) refers to inv_mpu.o(.constdata) for hw
    inv_mpu.o(.data) refers to inv_mpu.o(.constdata) for test
    inv_mpu_dmp_motion_driver.o(.text) refers to inv_mpu.o(.text) for mpu_load_firmware
    inv_mpu_dmp_motion_driver.o(.text) refers to inv_mpu_dmp_motion_driver.o(.constdata) for .constdata
    inv_mpu_dmp_motion_driver.o(.text) refers to inv_mpu_dmp_motion_driver.o(.bss) for .bss
    inv_mpu_dmp_motion_driver.o(.text) refers to aeabi_memset.o(.text) for __aeabi_memset
    mma8452q.o(.text) refers to myiic.o(.text) for IIC_Start
    mma8452q.o(.text) refers to mma8452q.o(.data) for .data
    dataprocessing.o(.text) refers to mma8452q.o(.text) for MMA_Get_Accelerometer
    dataprocessing.o(.text) refers to w25qxx.o(.text) for W25QXX_Write
    dataprocessing.o(.text) refers to dataprocessing.o(.data) for .data
    spi.o(.text) refers to stm32f4xx_spi.o(.text) for SPI_I2S_GetFlagStatus
    spi.o(.text) refers to stm32f4xx_rcc.o(.text) for RCC_AHB1PeriphClockCmd
    spi.o(.text) refers to stm32f4xx_gpio.o(.text) for GPIO_Init
    w25qxx.o(.text) refers to spi.o(.text) for SPI1_ReadWriteByte
    w25qxx.o(.text) refers to stm32f4xx_rcc.o(.text) for RCC_AHB1PeriphClockCmd
    w25qxx.o(.text) refers to stm32f4xx_gpio.o(.text) for GPIO_Init
    w25qxx.o(.text) refers to delay.o(.text) for delay_us
    w25qxx.o(.text) refers to w25qxx.o(.data) for .data
    w25qxx.o(.text) refers to w25qxx.o(.bss) for .bss
    sram.o(.text) refers to stm32f4xx_rcc.o(.text) for RCC_AHB1PeriphClockCmd
    sram.o(.text) refers to stm32f4xx_gpio.o(.text) for GPIO_Init
    sram.o(.text) refers to stm32f4xx_fsmc.o(.text) for FSMC_NORSRAMInit
    sdio_sdcard.o(.text) refers to stm32f4xx_sdio.o(.text) for SDIO_GetFlagStatus
    sdio_sdcard.o(.text) refers to sdio_sdcard.o(.data) for .data
    sdio_sdcard.o(.text) refers to sdio_sdcard.o(.bss) for .bss
    sdio_sdcard.o(.text) refers to stm32f4xx_rcc.o(.text) for RCC_AHB1PeriphClockCmd
    sdio_sdcard.o(.text) refers to stm32f4xx_gpio.o(.text) for GPIO_Init
    sdio_sdcard.o(.text) refers to misc.o(.text) for NVIC_Init
    sdio_sdcard.o(.text) refers to stm32f4xx_dma.o(.text) for DMA_GetCmdStatus
    sdio_sdcard.o(.text) refers to sys.o(.emb_text) for INTX_DISABLE
    sdio_sdcard.o(.text) refers to rt_memcpy_v6.o(.text) for __aeabi_memcpy
    delay.o(.text) refers to misc.o(.text) for SysTick_CLKSourceConfig
    delay.o(.text) refers to delay.o(.data) for .data
    usart.o(.rev16_text) refers (Special) to use_no_semi_2.o(.text) for __use_no_semihosting
    usart.o(.revsh_text) refers (Special) to use_no_semi_2.o(.text) for __use_no_semihosting
    usart.o(.text) refers (Special) to use_no_semi_2.o(.text) for __use_no_semihosting
    usart.o(.text) refers to stm32f4xx_rcc.o(.text) for RCC_AHB1PeriphClockCmd
    usart.o(.text) refers to stm32f4xx_gpio.o(.text) for GPIO_PinAFConfig
    usart.o(.text) refers to stm32f4xx_usart.o(.text) for USART_Init
    usart.o(.text) refers to misc.o(.text) for NVIC_Init
    usart.o(.text) refers to usart.o(.data) for .data
    usart.o(.text) refers to usart.o(.bss) for .bss
    usart.o(.bss) refers (Special) to use_no_semi_2.o(.text) for __use_no_semihosting
    usart.o(.data) refers (Special) to use_no_semi_2.o(.text) for __use_no_semihosting
    usart.o(.data) refers (Special) to use_no_semi_2.o(.text) for __use_no_semihosting
    startup_stm32f40_41xxx.o(STACK) refers (Special) to heapauxi.o(.text) for __use_two_region_memory
    startup_stm32f40_41xxx.o(HEAP) refers (Special) to heapauxi.o(.text) for __use_two_region_memory
    startup_stm32f40_41xxx.o(RESET) refers (Special) to heapauxi.o(.text) for __use_two_region_memory
    startup_stm32f40_41xxx.o(RESET) refers to startup_stm32f40_41xxx.o(STACK) for __initial_sp
    startup_stm32f40_41xxx.o(RESET) refers to startup_stm32f40_41xxx.o(.text) for Reset_Handler
    startup_stm32f40_41xxx.o(RESET) refers to stm32f4xx_it.o(.text) for NMI_Handler
    startup_stm32f40_41xxx.o(RESET) refers to usmart.o(.text) for TIM4_IRQHandler
    startup_stm32f40_41xxx.o(RESET) refers to usart.o(.text) for USART1_IRQHandler
    startup_stm32f40_41xxx.o(RESET) refers to sdio_sdcard.o(.text) for SDIO_IRQHandler
    startup_stm32f40_41xxx.o(RESET) refers to usbh_usr.o(.text) for OTG_FS_IRQHandler
    startup_stm32f40_41xxx.o(.text) refers (Special) to heapauxi.o(.text) for __use_two_region_memory
    startup_stm32f40_41xxx.o(.text) refers to system_stm32f4xx.o(.text) for SystemInit
    startup_stm32f40_41xxx.o(.text) refers to __main.o(!!!main) for __main
    startup_stm32f40_41xxx.o(.text) refers to startup_stm32f40_41xxx.o(HEAP) for Heap_Mem
    startup_stm32f40_41xxx.o(.text) refers to startup_stm32f40_41xxx.o(STACK) for Stack_Mem
    stm32f4xx_fsmc.o(.text) refers to stm32f4xx_fsmc.o(.constdata) for .constdata
    stm32f4xx_gpio.o(.text) refers to stm32f4xx_rcc.o(.text) for RCC_AHB1PeriphResetCmd
    stm32f4xx_rcc.o(.text) refers to stm32f4xx_rcc.o(.data) for .data
    stm32f4xx_syscfg.o(.text) refers to stm32f4xx_rcc.o(.text) for RCC_APB2PeriphResetCmd
    stm32f4xx_usart.o(.text) refers to stm32f4xx_rcc.o(.text) for RCC_APB2PeriphResetCmd
    stm32f4xx_tim.o(.text) refers to stm32f4xx_rcc.o(.text) for RCC_APB2PeriphResetCmd
    stm32f4xx_spi.o(.text) refers to stm32f4xx_rcc.o(.text) for RCC_APB1PeriphResetCmd
    stm32f4xx_sdio.o(.text) refers to stm32f4xx_rcc.o(.text) for RCC_APB2PeriphResetCmd
    usmart.o(.text) refers to _printf_percent.o(.ARM.Collect$$_printf_percent$$00000000) for _printf_percent
    usmart.o(.text) refers to _printf_s.o(.ARM.Collect$$_printf_percent$$00000014) for _printf_s
    usmart.o(.text) refers to _printf_str.o(.text) for _printf_str
    usmart.o(.text) refers to _printf_pad.o(.text) for _printf_pre_padding
    usmart.o(.text) refers to _printf_x.o(.ARM.Collect$$_printf_percent$$0000000C) for _printf_x
    usmart.o(.text) refers to _printf_hex_int.o(.text) for _printf_longlong_hex
    usmart.o(.text) refers to _printf_u.o(.ARM.Collect$$_printf_percent$$0000000A) for _printf_u
    usmart.o(.text) refers to _printf_dec.o(.text) for _printf_int_dec
    usmart.o(.text) refers to _printf_c.o(.ARM.Collect$$_printf_percent$$00000013) for _printf_c
    usmart.o(.text) refers to _printf_d.o(.ARM.Collect$$_printf_percent$$00000009) for _printf_d
    usmart.o(.text) refers to usmart_str.o(.text) for usmart_get_cmdname
    usmart.o(.text) refers to noretval__2printf.o(.text) for __2printf
    usmart.o(.text) refers to usmart.o(.data) for .data
    usmart.o(.text) refers to usmart_config.o(.data) for usmart_dev
    usmart.o(.text) refers to stm32f4xx_tim.o(.text) for TIM_ClearFlag
    usmart.o(.text) refers to stm32f4xx_rcc.o(.text) for RCC_APB1PeriphClockCmd
    usmart.o(.text) refers to misc.o(.text) for NVIC_Init
    usmart.o(.text) refers to usart.o(.data) for USART_RX_STA
    usmart.o(.text) refers to usart.o(.bss) for USART_RX_BUF
    usmart.o(.data) refers to usmart.o(.conststring) for .conststring
    usmart_config.o(.data) refers to usmart.o(.text) for read_addr
    usmart_config.o(.data) refers to usmart_config.o(.conststring) for .conststring
    usmart_config.o(.data) refers to delay.o(.text) for delay_ms
    usmart_config.o(.data) refers to w25qxx.o(.text) for W25QXX_Erase_Chip
    usmart_config.o(.data) refers to fattester.o(.text) for mf_mount
    usmart_config.o(.data) refers to usmart_config.o(.data) for usmart_nametab
    usmart_config.o(.data) refers to usmart.o(.text) for usmart_init
    usmart_str.o(.text) refers to usmart_config.o(.data) for usmart_dev
    malloc.o(.text) refers to malloc.o(.constdata) for .constdata
    malloc.o(.text) refers to malloc.o(.data) for .data
    malloc.o(.data) refers to malloc.o(.text) for my_mem_init
    malloc.o(.data) refers to malloc.o(.bss) for mem1base
    malloc.o(.data) refers to malloc.o(.ARM.__AT_0x68000000) for mem2base
    malloc.o(.data) refers to malloc.o(.ARM.__AT_0x10000000) for mem3base
    malloc.o(.data) refers to malloc.o(.bss) for mem1mapbase
    malloc.o(.data) refers to malloc.o(.ARM.__AT_0x680F0000) for mem2mapbase
    malloc.o(.data) refers to malloc.o(.ARM.__AT_0x1000F000) for mem3mapbase
    diskio.o(.text) refers to sdio_sdcard.o(.text) for SD_Init
    diskio.o(.text) refers to w25qxx.o(.text) for W25QXX_Init
    diskio.o(.text) refers to usbh_usr.o(.text) for USBH_UDISK_Status
    diskio.o(.text) refers to llsdiv.o(.text) for __aeabi_ldivmod
    diskio.o(.text) refers to malloc.o(.text) for mymalloc
    diskio.o(.text) refers to diskio.o(.data) for .data
    diskio.o(.text) refers to sdio_sdcard.o(.bss) for SDCardInfo
    diskio.o(.text) refers to usbh_msc_scsi.o(.bss) for USBH_MSC_Param
    ff.o(.text) refers to diskio.o(.text) for disk_write
    ff.o(.text) refers to cc936.o(.text) for ff_wtoupper
    ff.o(.text) refers to ff.o(.constdata) for .constdata
    ff.o(.text) refers to ff.o(.bss) for .bss
    ff.o(.text) refers to ff.o(.data) for .data
    exfuns.o(.text) refers to malloc.o(.text) for mymalloc
    exfuns.o(.text) refers to strcpy.o(.text) for strcpy
    exfuns.o(.text) refers to strcmpv7m.o(.text) for strcmp
    exfuns.o(.text) refers to ff.o(.text) for f_getfree
    exfuns.o(.text) refers to exfuns.o(.bss) for .bss
    exfuns.o(.text) refers to exfuns.o(.data) for .data
    exfuns.o(.text) refers to exfuns.o(.constdata) for .constdata
    exfuns.o(.constdata) refers to exfuns.o(.conststring) for .conststring
    fattester.o(.text) refers to _printf_percent.o(.ARM.Collect$$_printf_percent$$00000000) for _printf_percent
    fattester.o(.text) refers to _printf_d.o(.ARM.Collect$$_printf_percent$$00000009) for _printf_d
    fattester.o(.text) refers to _printf_dec.o(.text) for _printf_int_dec
    fattester.o(.text) refers to _printf_c.o(.ARM.Collect$$_printf_percent$$00000013) for _printf_c
    fattester.o(.text) refers to _printf_str.o(.text) for _printf_str
    fattester.o(.text) refers to _printf_s.o(.ARM.Collect$$_printf_percent$$00000014) for _printf_s
    fattester.o(.text) refers to _printf_x.o(.ARM.Collect$$_printf_percent$$0000000C) for _printf_x
    fattester.o(.text) refers to _printf_hex_int.o(.text) for _printf_longlong_hex
    fattester.o(.text) refers to ff.o(.text) for f_mount
    fattester.o(.text) refers to noretval__2printf.o(.text) for __2printf
    fattester.o(.text) refers to malloc.o(.text) for mymalloc
    fattester.o(.text) refers to exfuns.o(.bss) for fs
    fattester.o(.text) refers to exfuns.o(.data) for file
    fattester.o(.text) refers to exfuns.o(.data) for br
    fattester.o(.text) refers to exfuns.o(.data) for bw
    fattester.o(.text) refers to exfuns.o(.bss) for dir
    fattester.o(.text) refers to exfuns.o(.bss) for fileinfo
    cc936.o(.text) refers to cc936.o(.constdata) for .constdata
    usb_core.o(.text) refers to usb_bsp.o(.text) for USB_OTG_BSP_uDelay
    usb_hcd.o(.text) refers to usb_core.o(.text) for USB_OTG_SelectCore
    usb_hcd_int.o(.text) refers to usb_core.o(.text) for USB_OTG_InitFSLSPClkSel
    usb_hcd_int.o(.text) refers to usbh_core.o(.data) for USBH_HCD_INT_fops
    usbh_core.o(.text) refers to usbh_hcs.o(.text) for USBH_Free_Channel
    usbh_core.o(.text) refers to usb_bsp.o(.text) for USB_OTG_BSP_Init
    usbh_core.o(.text) refers to usb_hcd.o(.text) for HCD_Init
    usbh_core.o(.text) refers to usbh_ioreq.o(.text) for USBH_CtlSendSetup
    usbh_core.o(.text) refers to usbh_stdreq.o(.text) for USBH_Get_DevDesc
    usbh_core.o(.text) refers to usbh_core.o(.data) for .data
    usbh_core.o(.data) refers to usbh_core.o(.text) for USBH_SOF
    usbh_core.o(.data) refers to usbh_core.o(.data) for USBH_HCD_INT_cb
    usbh_hcs.o(.text) refers to usb_core.o(.text) for USB_OTG_HC_Init
    usbh_ioreq.o(.text) refers to usb_hcd.o(.text) for HCD_SubmitRequest
    usbh_stdreq.o(.text) refers to usbh_ioreq.o(.text) for USBH_CtlReq
    usbh_stdreq.o(.text) refers to usbh_stdreq.o(.data) for .data
    usbh_stdreq.o(.text) refers to usbh_stdreq.o(.bss) for .bss
    usbh_msc_bot.o(.text) refers to usb_hcd.o(.text) for HCD_IsDeviceConnected
    usbh_msc_bot.o(.text) refers to usbh_stdreq.o(.text) for USBH_ClrFeature
    usbh_msc_bot.o(.text) refers to usbh_ioreq.o(.text) for USBH_BulkSendData
    usbh_msc_bot.o(.text) refers to usbh_msc_bot.o(.bss) for .bss
    usbh_msc_bot.o(.text) refers to usbh_msc_bot.o(.data) for .data
    usbh_msc_bot.o(.text) refers to usbh_msc_core.o(.data) for MSCErrorCount
    usbh_msc_bot.o(.text) refers to usbh_msc_core.o(.bss) for MSC_Machine
    usbh_msc_core.o(.text) refers to usbh_hcs.o(.text) for USBH_Alloc_Channel
    usbh_msc_core.o(.text) refers to usb_core.o(.text) for USB_OTG_HC_Halt
    usbh_msc_core.o(.text) refers to usb_hcd.o(.text) for HCD_IsDeviceConnected
    usbh_msc_core.o(.text) refers to usbh_msc_bot.o(.text) for USBH_MSC_Init
    usbh_msc_core.o(.text) refers to usbh_ioreq.o(.text) for USBH_CtlReq
    usbh_msc_core.o(.text) refers to usbh_stdreq.o(.text) for USBH_ClrFeature
    usbh_msc_core.o(.text) refers to usbh_msc_scsi.o(.text) for USBH_MSC_TestUnitReady
    usbh_msc_core.o(.text) refers to usbh_msc_core.o(.bss) for .bss
    usbh_msc_core.o(.text) refers to usbh_msc_bot.o(.bss) for USBH_MSC_BOTXferParam
    usbh_msc_core.o(.text) refers to usbh_msc_core.o(.data) for .data
    usbh_msc_core.o(.data) refers to usbh_msc_core.o(.text) for USBH_MSC_InterfaceInit
    usbh_msc_scsi.o(.text) refers to usb_hcd.o(.text) for HCD_IsDeviceConnected
    usbh_msc_scsi.o(.text) refers to usbh_msc_bot.o(.bss) for USBH_MSC_BOTXferParam
    usbh_msc_scsi.o(.text) refers to usbh_msc_scsi.o(.bss) for .bss
    usbh_msc_scsi.o(.text) refers to usbh_msc_scsi.o(.data) for .data
    usb_bsp.o(.text) refers to stm32f4xx_rcc.o(.text) for RCC_AHB1PeriphClockCmd
    usb_bsp.o(.text) refers to stm32f4xx_gpio.o(.text) for GPIO_Init
    usb_bsp.o(.text) refers to misc.o(.text) for NVIC_Init
    usb_bsp.o(.text) refers to delay.o(.text) for delay_us
    usbh_usr.o(.text) refers to _printf_pad.o(.text) for _printf_pre_padding
    usbh_usr.o(.text) refers to _printf_percent.o(.ARM.Collect$$_printf_percent$$00000000) for _printf_percent
    usbh_usr.o(.text) refers to _printf_x.o(.ARM.Collect$$_printf_percent$$0000000C) for _printf_x
    usbh_usr.o(.text) refers to _printf_hex_int.o(.text) for _printf_longlong_hex
    usbh_usr.o(.text) refers to _printf_s.o(.ARM.Collect$$_printf_percent$$00000014) for _printf_s
    usbh_usr.o(.text) refers to _printf_str.o(.text) for _printf_str
    usbh_usr.o(.text) refers to usb_hcd_int.o(.text) for USBH_OTG_ISR_Handler
    usbh_usr.o(.text) refers to noretval__2printf.o(.text) for __2printf
    usbh_usr.o(.text) refers to main.o(.text) for USH_User_App
    usbh_usr.o(.text) refers to usb_hcd.o(.text) for HCD_IsDeviceConnected
    usbh_usr.o(.text) refers to usbh_msc_scsi.o(.text) for USBH_MSC_Read10
    usbh_usr.o(.text) refers to usbh_msc_bot.o(.text) for USBH_MSC_HandleBOTXfer
    usbh_usr.o(.text) refers to main.o(.bss) for USB_OTG_Core
    usbh_usr.o(.text) refers to usbh_usr.o(.data) for .data
    usbh_usr.o(.text) refers to main.o(.bss) for USB_Host
    usbh_usr.o(.data) refers to usbh_usr.o(.text) for USBH_USR_Init
    fontupd.o(.text) refers to lcd.o(.text) for LCD_ShowString
    fontupd.o(.text) refers to malloc.o(.text) for mymalloc
    fontupd.o(.text) refers to ff.o(.text) for f_open
    fontupd.o(.text) refers to w25qxx.o(.text) for W25QXX_Write
    fontupd.o(.text) refers to strcpy.o(.text) for strcpy
    fontupd.o(.text) refers to strcat.o(.text) for strcat
    fontupd.o(.text) refers to fontupd.o(.bss) for .bss
    fontupd.o(.text) refers to fontupd.o(.constdata) for .constdata
    fontupd.o(.text) refers to delay.o(.text) for delay_ms
    fontupd.o(.constdata) refers to fontupd.o(.conststring) for .conststring
    text.o(.text) refers to w25qxx.o(.text) for W25QXX_Read
    text.o(.text) refers to lcd.o(.text) for LCD_Fast_DrawPoint
    text.o(.text) refers to strlen.o(.text) for strlen
    text.o(.text) refers to fontupd.o(.bss) for ftinfo
    text.o(.text) refers to lcd.o(.data) for POINT_COLOR
    text.o(.text) refers to lcd.o(.bss) for lcddev
    bmp.o(.text) refers to piclib.o(.text) for pic_memalloc
    bmp.o(.text) refers to ff.o(.text) for f_open
    bmp.o(.text) refers to piclib.o(.bss) for picinfo
    bmp.o(.text) refers to malloc.o(.text) for mymemset
    bmp.o(.text) refers to lcd.o(.text) for LCD_ReadPoint
    bmp.o(.text) refers to lcd.o(.bss) for lcddev
    bmp.o(.text) refers to exfuns.o(.data) for bw
    gif.o(.text) refers to ff.o(.text) for f_read
    gif.o(.text) refers to malloc.o(.text) for mymemset
    gif.o(.text) refers to gif.o(.constdata) for .constdata
    gif.o(.text) refers to piclib.o(.bss) for pic_phy
    gif.o(.text) refers to piclib.o(.text) for pic_memalloc
    gif.o(.text) refers to delay.o(.text) for delay_ms
    gif.o(.text) refers to gif.o(.data) for .data
    piclib.o(.text) refers to lcd.o(.text) for LCD_Fill
    piclib.o(.text) refers to exfuns.o(.text) for f_typetell
    piclib.o(.text) refers to bmp.o(.text) for stdbmp_decode
    piclib.o(.text) refers to tjpgd.o(.text) for jpg_decode
    piclib.o(.text) refers to gif.o(.text) for gif_decode
    piclib.o(.text) refers to malloc.o(.text) for mymalloc
    piclib.o(.text) refers to lcd.o(.bss) for lcddev
    piclib.o(.text) refers to piclib.o(.bss) for .bss
    tjpgd.o(.text) refers to tjpgd.o(.constdata) for .constdata
    tjpgd.o(.text) refers to piclib.o(.text) for pic_memalloc
    tjpgd.o(.text) refers to ff.o(.text) for f_read
    tjpgd.o(.text) refers to tjpgd.o(.data) for .data
    tjpgd.o(.text) refers to piclib.o(.bss) for picinfo
    use_no_semi_2.o(.text) refers (Special) to use_no_semi.o(.text) for __use_no_semihosting_swi
    llsdiv.o(.text) refers to lludivv7m.o(.text) for __aeabi_uldivmod
    __2printf.o(.text) refers to _printf_char_file.o(.text) for _printf_char_file
    __2printf.o(.text) refers to usart.o(.data) for __stdout
    noretval__2printf.o(.text) refers to _printf_char_file.o(.text) for _printf_char_file
    noretval__2printf.o(.text) refers to usart.o(.data) for __stdout
    __printf.o(.text) refers to _printf_percent.o(.ARM.Collect$$_printf_percent$$00000000) for _printf_percent
    _printf_str.o(.text) refers (Special) to _printf_char.o(.text) for _printf_cs_common
    _printf_str.o(.text) refers (Weak) to _printf_pad.o(.text) for _printf_pre_padding
    _printf_str.o(.text) refers (Weak) to _printf_pad.o(.text) for _printf_post_padding
    _printf_dec.o(.text) refers to _printf_intcommon.o(.text) for _printf_int_common
    _printf_hex_ll.o(.text) refers to _printf_intcommon.o(.text) for _printf_int_common
    _printf_hex_ll.o(.text) refers to _printf_hex_ll.o(.constdata) for .constdata
    _printf_hex_int.o(.text) refers to _printf_intcommon.o(.text) for _printf_int_common
    _printf_hex_int.o(.text) refers to _printf_hex_int.o(.constdata) for .constdata
    _printf_hex_int_ll.o(.text) refers to _printf_intcommon.o(.text) for _printf_int_common
    _printf_hex_int_ll.o(.text) refers to _printf_hex_int_ll.o(.constdata) for .constdata
    _printf_hex_ptr.o(.text) refers to _printf_intcommon.o(.text) for _printf_int_common
    _printf_hex_ptr.o(.text) refers to _printf_hex_ptr.o(.constdata) for .constdata
    _printf_hex_int_ptr.o(.text) refers to _printf_intcommon.o(.text) for _printf_int_common
    _printf_hex_int_ptr.o(.text) refers to _printf_hex_int_ptr.o(.constdata) for .constdata
    _printf_hex_ll_ptr.o(.text) refers to _printf_intcommon.o(.text) for _printf_int_common
    _printf_hex_ll_ptr.o(.text) refers to _printf_hex_ll_ptr.o(.constdata) for .constdata
    _printf_hex_int_ll_ptr.o(.text) refers to _printf_intcommon.o(.text) for _printf_int_common
    _printf_hex_int_ll_ptr.o(.text) refers to _printf_hex_int_ll_ptr.o(.constdata) for .constdata
    __printf_flags.o(.text) refers to _printf_percent.o(.ARM.Collect$$_printf_percent$$00000000) for _printf_percent
    __printf_flags.o(.text) refers to __printf_flags.o(.constdata) for .constdata
    __printf_ss.o(.text) refers to _printf_percent.o(.ARM.Collect$$_printf_percent$$00000000) for _printf_percent
    __printf_flags_ss.o(.text) refers to _printf_percent.o(.ARM.Collect$$_printf_percent$$00000000) for _printf_percent
    __printf_flags_ss.o(.text) refers to __printf_flags_ss.o(.constdata) for .constdata
    __printf_wp.o(.text) refers to __printf_wp.o(i._is_digit) for _is_digit
    __printf_wp.o(.text) refers to _printf_percent.o(.ARM.Collect$$_printf_percent$$00000000) for _printf_percent
    __printf_flags_wp.o(.text) refers to __printf_wp.o(i._is_digit) for _is_digit
    __printf_flags_wp.o(.text) refers to _printf_percent.o(.ARM.Collect$$_printf_percent$$00000000) for _printf_percent
    __printf_flags_wp.o(.text) refers to __printf_flags_wp.o(.constdata) for .constdata
    __printf_ss_wp.o(.text) refers to __printf_wp.o(i._is_digit) for _is_digit
    __printf_ss_wp.o(.text) refers to _printf_percent.o(.ARM.Collect$$_printf_percent$$00000000) for _printf_percent
    __printf_flags_ss_wp.o(.text) refers to __printf_wp.o(i._is_digit) for _is_digit
    __printf_flags_ss_wp.o(.text) refers to _printf_percent.o(.ARM.Collect$$_printf_percent$$00000000) for _printf_percent
    __printf_flags_ss_wp.o(.text) refers to __printf_flags_ss_wp.o(.constdata) for .constdata
    _printf_c.o(.ARM.Collect$$_printf_percent$$00000013) refers (Weak) to _printf_char.o(.text) for _printf_char
    _printf_s.o(.ARM.Collect$$_printf_percent$$00000014) refers (Weak) to _printf_char.o(.text) for _printf_string
    _printf_x.o(.ARM.Collect$$_printf_percent$$0000000C) refers (Weak) to _printf_hex_int.o(.text) for _printf_int_hex
    _printf_d.o(.ARM.Collect$$_printf_percent$$00000009) refers (Weak) to _printf_dec.o(.text) for _printf_int_dec
    _printf_u.o(.ARM.Collect$$_printf_percent$$0000000A) refers (Weak) to _printf_dec.o(.text) for _printf_int_dec
    _printf_percent.o(.ARM.Collect$$_printf_percent$$00000000) refers (Special) to _printf_percent_end.o(.ARM.Collect$$_printf_percent$$00000017) for _printf_percent_end
    rt_memcpy_v6.o(.text) refers to rt_memcpy_w.o(.text) for __aeabi_memcpy4
    aeabi_memset.o(.text) refers to rt_memclr.o(.text) for _memset
    __main.o(!!!main) refers to __rtentry.o(.ARM.Collect$$rtentry$$00000000) for __rt_entry
    d2f.o(x$fpl$d2f) refers (Special) to usenofp.o(x$fpl$usenofp) for __I$use$fp
    d2f.o(x$fpl$d2f) refers to fretinf.o(x$fpl$fretinf) for __fpl_fretinf
    d2f.o(x$fpl$d2f) refers to dnaninf.o(x$fpl$dnaninf) for __fpl_dnaninf
    daddsub_clz.o(x$fpl$dadd) refers (Special) to usenofp.o(x$fpl$usenofp) for __I$use$fp
    daddsub_clz.o(x$fpl$dadd) refers to daddsub_clz.o(x$fpl$dsub) for _dsub1
    daddsub_clz.o(x$fpl$dadd) refers to dretinf.o(x$fpl$dretinf) for __fpl_dretinf
    daddsub_clz.o(x$fpl$dadd) refers to dnaninf.o(x$fpl$dnaninf) for __fpl_dnaninf
    daddsub_clz.o(x$fpl$drsb) refers (Special) to usenofp.o(x$fpl$usenofp) for __I$use$fp
    daddsub_clz.o(x$fpl$drsb) refers to daddsub_clz.o(x$fpl$dadd) for _dadd1
    daddsub_clz.o(x$fpl$drsb) refers to daddsub_clz.o(x$fpl$dsub) for _dsub1
    daddsub_clz.o(x$fpl$dsub) refers (Special) to usenofp.o(x$fpl$usenofp) for __I$use$fp
    daddsub_clz.o(x$fpl$dsub) refers to daddsub_clz.o(x$fpl$dadd) for _dadd1
    daddsub_clz.o(x$fpl$dsub) refers to dnaninf.o(x$fpl$dnaninf) for __fpl_dnaninf
    ddiv.o(x$fpl$drdiv) refers (Special) to usenofp.o(x$fpl$usenofp) for __I$use$fp
    ddiv.o(x$fpl$drdiv) refers to ddiv.o(x$fpl$ddiv) for ddiv_entry
    ddiv.o(x$fpl$ddiv) refers (Special) to usenofp.o(x$fpl$usenofp) for __I$use$fp
    ddiv.o(x$fpl$ddiv) refers to dretinf.o(x$fpl$dretinf) for __fpl_dretinf
    ddiv.o(x$fpl$ddiv) refers to dnaninf.o(x$fpl$dnaninf) for __fpl_dnaninf
    dfixu.o(x$fpl$dfixu) refers (Special) to usenofp.o(x$fpl$usenofp) for __I$use$fp
    dfixu.o(x$fpl$dfixu) refers to dnaninf.o(x$fpl$dnaninf) for __fpl_dnaninf
    dfixu.o(x$fpl$dfixur) refers (Special) to usenofp.o(x$fpl$usenofp) for __I$use$fp
    dfixu.o(x$fpl$dfixur) refers to dnaninf.o(x$fpl$dnaninf) for __fpl_dnaninf
    dflt_clz.o(x$fpl$dfltu) refers (Special) to usenofp.o(x$fpl$usenofp) for __I$use$fp
    dflt_clz.o(x$fpl$dflt) refers (Special) to usenofp.o(x$fpl$usenofp) for __I$use$fp
    dflt_clz.o(x$fpl$dfltn) refers (Special) to usenofp.o(x$fpl$usenofp) for __I$use$fp
    dmul.o(x$fpl$dmul) refers (Special) to usenofp.o(x$fpl$usenofp) for __I$use$fp
    dmul.o(x$fpl$dmul) refers to dretinf.o(x$fpl$dretinf) for __fpl_dretinf
    dmul.o(x$fpl$dmul) refers to dnaninf.o(x$fpl$dnaninf) for __fpl_dnaninf
    f2d.o(x$fpl$f2d) refers (Special) to usenofp.o(x$fpl$usenofp) for __I$use$fp
    f2d.o(x$fpl$f2d) refers to fnaninf.o(x$fpl$fnaninf) for __fpl_fnaninf
    f2d.o(x$fpl$f2d) refers to dretinf.o(x$fpl$dretinf) for __fpl_dretinf
    asin.o(i.__hardfp_asin) refers (Special) to usenofp.o(x$fpl$usenofp) for __I$use$fp
    asin.o(i.__hardfp_asin) refers to dunder.o(i.__mathlib_dbl_infnan) for __mathlib_dbl_infnan
    asin.o(i.__hardfp_asin) refers to dmul.o(x$fpl$dmul) for __aeabi_dmul
    asin.o(i.__hardfp_asin) refers to daddsub_clz.o(x$fpl$dadd) for __aeabi_dadd
    asin.o(i.__hardfp_asin) refers to _rserrno.o(.text) for __set_errno
    asin.o(i.__hardfp_asin) refers to dunder.o(i.__mathlib_dbl_invalid) for __mathlib_dbl_invalid
    asin.o(i.__hardfp_asin) refers to fpclassify.o(i.__ARM_fpclassify) for __ARM_fpclassify
    asin.o(i.__hardfp_asin) refers to dunder.o(i.__mathlib_dbl_underflow) for __mathlib_dbl_underflow
    asin.o(i.__hardfp_asin) refers to poly.o(i.__kernel_poly) for __kernel_poly
    asin.o(i.__hardfp_asin) refers to ddiv.o(x$fpl$ddiv) for __aeabi_ddiv
    asin.o(i.__hardfp_asin) refers to fabs.o(i.fabs) for fabs
    asin.o(i.__hardfp_asin) refers to daddsub_clz.o(x$fpl$drsb) for __aeabi_drsub
    asin.o(i.__hardfp_asin) refers to sqrt.o(i.sqrt) for sqrt
    asin.o(i.__hardfp_asin) refers to daddsub_clz.o(x$fpl$dsub) for __aeabi_dsub
    asin.o(i.__hardfp_asin) refers to basic.o(x$fpl$basic) for __aeabi_dneg
    asin.o(i.__hardfp_asin) refers to asin.o(.constdata) for .constdata
    asin.o(i.__softfp_asin) refers (Special) to usenofp.o(x$fpl$usenofp) for __I$use$fp
    asin.o(i.__softfp_asin) refers to asin.o(i.__hardfp_asin) for __hardfp_asin
    asin.o(i.asin) refers (Special) to usenofp.o(x$fpl$usenofp) for __I$use$fp
    asin.o(i.asin) refers to asin.o(i.__hardfp_asin) for __hardfp_asin
    asin.o(.constdata) refers (Special) to usenofp.o(x$fpl$usenofp) for __I$use$fp
    asin_x.o(i.____hardfp_asin$lsc) refers (Special) to usenofp.o(x$fpl$usenofp) for __I$use$fp
    asin_x.o(i.____hardfp_asin$lsc) refers to dunder.o(i.__mathlib_dbl_infnan) for __mathlib_dbl_infnan
    asin_x.o(i.____hardfp_asin$lsc) refers to dmul.o(x$fpl$dmul) for __aeabi_dmul
    asin_x.o(i.____hardfp_asin$lsc) refers to daddsub_clz.o(x$fpl$dadd) for __aeabi_dadd
    asin_x.o(i.____hardfp_asin$lsc) refers to _rserrno.o(.text) for __set_errno
    asin_x.o(i.____hardfp_asin$lsc) refers to poly.o(i.__kernel_poly) for __kernel_poly
    asin_x.o(i.____hardfp_asin$lsc) refers to ddiv.o(x$fpl$ddiv) for __aeabi_ddiv
    asin_x.o(i.____hardfp_asin$lsc) refers to fabs.o(i.fabs) for fabs
    asin_x.o(i.____hardfp_asin$lsc) refers to daddsub_clz.o(x$fpl$drsb) for __aeabi_drsub
    asin_x.o(i.____hardfp_asin$lsc) refers to sqrt.o(i.sqrt) for sqrt
    asin_x.o(i.____hardfp_asin$lsc) refers to daddsub_clz.o(x$fpl$dsub) for __aeabi_dsub
    asin_x.o(i.____hardfp_asin$lsc) refers to basic.o(x$fpl$basic) for __aeabi_dneg
    asin_x.o(i.____hardfp_asin$lsc) refers to asin_x.o(.constdata) for .constdata
    asin_x.o(i.____softfp_asin$lsc) refers (Special) to usenofp.o(x$fpl$usenofp) for __I$use$fp
    asin_x.o(i.____softfp_asin$lsc) refers to asin_x.o(i.____hardfp_asin$lsc) for ____hardfp_asin$lsc
    asin_x.o(i.__asin$lsc) refers (Special) to usenofp.o(x$fpl$usenofp) for __I$use$fp
    asin_x.o(i.__asin$lsc) refers to asin_x.o(i.____hardfp_asin$lsc) for ____hardfp_asin$lsc
    asin_x.o(.constdata) refers (Special) to usenofp.o(x$fpl$usenofp) for __I$use$fp
    atan2.o(i.__hardfp_atan2) refers (Special) to usenofp.o(x$fpl$usenofp) for __I$use$fp
    atan2.o(i.__hardfp_atan2) refers to dunder.o(i.__mathlib_dbl_infnan2) for __mathlib_dbl_infnan2
    atan2.o(i.__hardfp_atan2) refers to atan.o(i.atan) for atan
    atan2.o(i.__hardfp_atan2) refers to basic.o(x$fpl$basic) for __aeabi_dneg
    atan2.o(i.__hardfp_atan2) refers to ddiv.o(x$fpl$ddiv) for __aeabi_ddiv
    atan2.o(i.__hardfp_atan2) refers to fabs.o(i.fabs) for fabs
    atan2.o(i.__hardfp_atan2) refers to daddsub_clz.o(x$fpl$dsub) for __aeabi_dsub
    atan2.o(i.__hardfp_atan2) refers to daddsub_clz.o(x$fpl$drsb) for __aeabi_drsub
    atan2.o(i.__hardfp_atan2) refers to qnan.o(.constdata) for __mathlib_zero
    atan2.o(i.__softfp_atan2) refers (Special) to usenofp.o(x$fpl$usenofp) for __I$use$fp
    atan2.o(i.__softfp_atan2) refers to atan2.o(i.__hardfp_atan2) for __hardfp_atan2
    atan2.o(i.atan2) refers (Special) to usenofp.o(x$fpl$usenofp) for __I$use$fp
    atan2.o(i.atan2) refers to atan2.o(i.__hardfp_atan2) for __hardfp_atan2
    atan2_x.o(i.____hardfp_atan2$lsc) refers (Special) to usenofp.o(x$fpl$usenofp) for __I$use$fp
    atan2_x.o(i.____hardfp_atan2$lsc) refers to dunder.o(i.__mathlib_dbl_infnan2) for __mathlib_dbl_infnan2
    atan2_x.o(i.____hardfp_atan2$lsc) refers to atan.o(i.atan) for atan
    atan2_x.o(i.____hardfp_atan2$lsc) refers to _rserrno.o(.text) for __set_errno
    atan2_x.o(i.____hardfp_atan2$lsc) refers to basic.o(x$fpl$basic) for __aeabi_dneg
    atan2_x.o(i.____hardfp_atan2$lsc) refers to ddiv.o(x$fpl$ddiv) for __aeabi_ddiv
    atan2_x.o(i.____hardfp_atan2$lsc) refers to fabs.o(i.fabs) for fabs
    atan2_x.o(i.____hardfp_atan2$lsc) refers to daddsub_clz.o(x$fpl$dsub) for __aeabi_dsub
    atan2_x.o(i.____hardfp_atan2$lsc) refers to daddsub_clz.o(x$fpl$drsb) for __aeabi_drsub
    atan2_x.o(i.____hardfp_atan2$lsc) refers to qnan.o(.constdata) for __mathlib_zero
    atan2_x.o(i.____softfp_atan2$lsc) refers (Special) to usenofp.o(x$fpl$usenofp) for __I$use$fp
    atan2_x.o(i.____softfp_atan2$lsc) refers to atan2_x.o(i.____hardfp_atan2$lsc) for ____hardfp_atan2$lsc
    atan2_x.o(i.__atan2$lsc) refers (Special) to usenofp.o(x$fpl$usenofp) for __I$use$fp
    atan2_x.o(i.__atan2$lsc) refers to atan2_x.o(i.____hardfp_atan2$lsc) for ____hardfp_atan2$lsc
    __rtentry.o(.ARM.Collect$$rtentry$$00000000) refers (Special) to __rtentry2.o(.ARM.Collect$$rtentry$$0000000A) for __rt_entry_li
    __rtentry.o(.ARM.Collect$$rtentry$$00000000) refers (Special) to __rtentry2.o(.ARM.Collect$$rtentry$$0000000D) for __rt_entry_main
    __rtentry.o(.ARM.Collect$$rtentry$$00000000) refers (Special) to __rtentry2.o(.ARM.Collect$$rtentry$$0000000C) for __rt_entry_postli_1
    __rtentry.o(.ARM.Collect$$rtentry$$00000000) refers (Special) to __rtentry2.o(.ARM.Collect$$rtentry$$00000009) for __rt_entry_postsh_1
    __rtentry.o(.ARM.Collect$$rtentry$$00000000) refers (Special) to __rtentry2.o(.ARM.Collect$$rtentry$$00000002) for __rt_entry_presh_1
    __rtentry.o(.ARM.Collect$$rtentry$$00000000) refers (Special) to __rtentry4.o(.ARM.Collect$$rtentry$$00000004) for __rt_entry_sh
    _rserrno.o(.text) refers to rt_errno_addr_intlibspace.o(.text) for __aeabi_errno_addr
    _printf_intcommon.o(.text) refers (Weak) to _printf_pad.o(.text) for _printf_pre_padding
    _printf_intcommon.o(.text) refers (Weak) to _printf_pad.o(.text) for _printf_pre_padding
    _printf_intcommon.o(.text) refers (Weak) to _printf_pad.o(.text) for _printf_post_padding
    _printf_char.o(.text) refers (Weak) to _printf_str.o(.text) for _printf_str
    _printf_char_file.o(.text) refers to _printf_char_common.o(.text) for _printf_char_common
    _printf_char_file.o(.text) refers to ferror.o(.text) for ferror
    _printf_char_file.o(.text) refers to usart.o(.text) for fputc
    rt_memclr.o(.text) refers to rt_memclr_w.o(.text) for _memset_w
    basic.o(x$fpl$basic) refers (Special) to usenofp.o(x$fpl$usenofp) for __I$use$fp
    dnaninf.o(x$fpl$dnaninf) refers (Special) to usenofp.o(x$fpl$usenofp) for __I$use$fp
    dretinf.o(x$fpl$dretinf) refers (Special) to usenofp.o(x$fpl$usenofp) for __I$use$fp
    fnaninf.o(x$fpl$fnaninf) refers (Special) to usenofp.o(x$fpl$usenofp) for __I$use$fp
    fretinf.o(x$fpl$fretinf) refers (Special) to usenofp.o(x$fpl$usenofp) for __I$use$fp
    atan.o(i.__hardfp_atan) refers (Special) to usenofp.o(x$fpl$usenofp) for __I$use$fp
    atan.o(i.__hardfp_atan) refers to dunder.o(i.__mathlib_dbl_infnan) for __mathlib_dbl_infnan
    atan.o(i.__hardfp_atan) refers to fpclassify.o(i.__ARM_fpclassify) for __ARM_fpclassify
    atan.o(i.__hardfp_atan) refers to dunder.o(i.__mathlib_dbl_underflow) for __mathlib_dbl_underflow
    atan.o(i.__hardfp_atan) refers to fabs.o(i.fabs) for fabs
    atan.o(i.__hardfp_atan) refers to daddsub_clz.o(x$fpl$dadd) for __aeabi_dadd
    atan.o(i.__hardfp_atan) refers to dmul.o(x$fpl$dmul) for __aeabi_dmul
    atan.o(i.__hardfp_atan) refers to daddsub_clz.o(x$fpl$dsub) for __aeabi_dsub
    atan.o(i.__hardfp_atan) refers to ddiv.o(x$fpl$ddiv) for __aeabi_ddiv
    atan.o(i.__hardfp_atan) refers to poly.o(i.__kernel_poly) for __kernel_poly
    atan.o(i.__hardfp_atan) refers to daddsub_clz.o(x$fpl$drsb) for __aeabi_drsub
    atan.o(i.__hardfp_atan) refers to basic.o(x$fpl$basic) for __aeabi_dneg
    atan.o(i.__hardfp_atan) refers to atan.o(.constdata) for .constdata
    atan.o(i.__softfp_atan) refers (Special) to usenofp.o(x$fpl$usenofp) for __I$use$fp
    atan.o(i.__softfp_atan) refers to atan.o(i.__hardfp_atan) for __hardfp_atan
    atan.o(i.atan) refers (Special) to usenofp.o(x$fpl$usenofp) for __I$use$fp
    atan.o(i.atan) refers to atan.o(i.__hardfp_atan) for __hardfp_atan
    atan.o(.constdata) refers (Special) to usenofp.o(x$fpl$usenofp) for __I$use$fp
    atan_x.o(i.____hardfp_atan$lsc) refers (Special) to usenofp.o(x$fpl$usenofp) for __I$use$fp
    atan_x.o(i.____hardfp_atan$lsc) refers to dunder.o(i.__mathlib_dbl_infnan) for __mathlib_dbl_infnan
    atan_x.o(i.____hardfp_atan$lsc) refers to fabs.o(i.fabs) for fabs
    atan_x.o(i.____hardfp_atan$lsc) refers to daddsub_clz.o(x$fpl$dadd) for __aeabi_dadd
    atan_x.o(i.____hardfp_atan$lsc) refers to dmul.o(x$fpl$dmul) for __aeabi_dmul
    atan_x.o(i.____hardfp_atan$lsc) refers to daddsub_clz.o(x$fpl$dsub) for __aeabi_dsub
    atan_x.o(i.____hardfp_atan$lsc) refers to ddiv.o(x$fpl$ddiv) for __aeabi_ddiv
    atan_x.o(i.____hardfp_atan$lsc) refers to poly.o(i.__kernel_poly) for __kernel_poly
    atan_x.o(i.____hardfp_atan$lsc) refers to daddsub_clz.o(x$fpl$drsb) for __aeabi_drsub
    atan_x.o(i.____hardfp_atan$lsc) refers to basic.o(x$fpl$basic) for __aeabi_dneg
    atan_x.o(i.____hardfp_atan$lsc) refers to atan_x.o(.constdata) for .constdata
    atan_x.o(i.____softfp_atan$lsc) refers (Special) to usenofp.o(x$fpl$usenofp) for __I$use$fp
    atan_x.o(i.____softfp_atan$lsc) refers to atan_x.o(i.____hardfp_atan$lsc) for ____hardfp_atan$lsc
    atan_x.o(i.__atan$lsc) refers (Special) to usenofp.o(x$fpl$usenofp) for __I$use$fp
    atan_x.o(i.__atan$lsc) refers to atan_x.o(i.____hardfp_atan$lsc) for ____hardfp_atan$lsc
    atan_x.o(.constdata) refers (Special) to usenofp.o(x$fpl$usenofp) for __I$use$fp
    dunder.o(i.__mathlib_dbl_divzero) refers to ddiv.o(x$fpl$ddiv) for __aeabi_ddiv
    dunder.o(i.__mathlib_dbl_infnan) refers to daddsub_clz.o(x$fpl$dadd) for __aeabi_dadd
    dunder.o(i.__mathlib_dbl_infnan2) refers to daddsub_clz.o(x$fpl$dadd) for __aeabi_dadd
    dunder.o(i.__mathlib_dbl_invalid) refers to ddiv.o(x$fpl$ddiv) for __aeabi_ddiv
    dunder.o(i.__mathlib_dbl_overflow) refers to dmul.o(x$fpl$dmul) for __aeabi_dmul
    dunder.o(i.__mathlib_dbl_posinfnan) refers to dmul.o(x$fpl$dmul) for __aeabi_dmul
    dunder.o(i.__mathlib_dbl_underflow) refers to dmul.o(x$fpl$dmul) for __aeabi_dmul
    fabs.o(i.__hardfp_fabs) refers (Special) to usenofp.o(x$fpl$usenofp) for __I$use$fp
    fabs.o(i.__softfp_fabs) refers (Special) to usenofp.o(x$fpl$usenofp) for __I$use$fp
    fabs.o(i.fabs) refers (Special) to usenofp.o(x$fpl$usenofp) for __I$use$fp
    fpclassify.o(i.__ARM_fpclassify) refers (Special) to usenofp.o(x$fpl$usenofp) for __I$use$fp
    poly.o(i.__kernel_poly) refers (Special) to usenofp.o(x$fpl$usenofp) for __I$use$fp
    poly.o(i.__kernel_poly) refers to dmul.o(x$fpl$dmul) for __aeabi_dmul
    poly.o(i.__kernel_poly) refers to daddsub_clz.o(x$fpl$dadd) for __aeabi_dadd
    qnan.o(.constdata) refers (Special) to usenofp.o(x$fpl$usenofp) for __I$use$fp
    sqrt.o(i.__hardfp_sqrt) refers (Special) to usenofp.o(x$fpl$usenofp) for __I$use$fp
    sqrt.o(i.__hardfp_sqrt) refers to dsqrt_umaal.o(x$fpl$dsqrt) for _dsqrt
    sqrt.o(i.__hardfp_sqrt) refers to _rserrno.o(.text) for __set_errno
    sqrt.o(i.__softfp_sqrt) refers (Special) to usenofp.o(x$fpl$usenofp) for __I$use$fp
    sqrt.o(i.__softfp_sqrt) refers to dsqrt_umaal.o(x$fpl$dsqrt) for _dsqrt
    sqrt.o(i.__softfp_sqrt) refers to _rserrno.o(.text) for __set_errno
    sqrt.o(i.sqrt) refers (Special) to usenofp.o(x$fpl$usenofp) for __I$use$fp
    sqrt.o(i.sqrt) refers to dsqrt_umaal.o(x$fpl$dsqrt) for _dsqrt
    sqrt.o(i.sqrt) refers to _rserrno.o(.text) for __set_errno
    sqrt_x.o(i.____hardfp_sqrt$lsc) refers (Special) to usenofp.o(x$fpl$usenofp) for __I$use$fp
    sqrt_x.o(i.____hardfp_sqrt$lsc) refers to dleqf.o(x$fpl$dleqf) for __aeabi_cdcmple
    sqrt_x.o(i.____hardfp_sqrt$lsc) refers to _rserrno.o(.text) for __set_errno
    sqrt_x.o(i.____hardfp_sqrt$lsc) refers to dsqrt_umaal.o(x$fpl$dsqrt) for _dsqrt
    sqrt_x.o(i.____softfp_sqrt$lsc) refers (Special) to usenofp.o(x$fpl$usenofp) for __I$use$fp
    sqrt_x.o(i.____softfp_sqrt$lsc) refers to dleqf.o(x$fpl$dleqf) for __aeabi_cdcmple
    sqrt_x.o(i.____softfp_sqrt$lsc) refers to _rserrno.o(.text) for __set_errno
    sqrt_x.o(i.____softfp_sqrt$lsc) refers to dsqrt_umaal.o(x$fpl$dsqrt) for _dsqrt
    sqrt_x.o(i.__sqrt$lsc) refers (Special) to usenofp.o(x$fpl$usenofp) for __I$use$fp
    sqrt_x.o(i.__sqrt$lsc) refers to dleqf.o(x$fpl$dleqf) for __aeabi_cdcmple
    sqrt_x.o(i.__sqrt$lsc) refers to _rserrno.o(.text) for __set_errno
    sqrt_x.o(i.__sqrt$lsc) refers to dsqrt_umaal.o(x$fpl$dsqrt) for _dsqrt
    __rtentry2.o(.ARM.Collect$$rtentry$$00000008) refers to boardinit2.o(.text) for _platform_post_stackheap_init
    __rtentry2.o(.ARM.Collect$$rtentry$$0000000A) refers to libinit.o(.ARM.Collect$$libinit$$00000000) for __rt_lib_init
    __rtentry2.o(.ARM.Collect$$rtentry$$0000000B) refers to boardinit3.o(.text) for _platform_post_lib_init
    __rtentry2.o(.ARM.Collect$$rtentry$$0000000D) refers to main.o(.text) for main
    __rtentry2.o(.ARM.Collect$$rtentry$$0000000D) refers to exit.o(.text) for exit
    __rtentry2.o(.ARM.exidx) refers to __rtentry2.o(.ARM.Collect$$rtentry$$00000001) for .ARM.Collect$$rtentry$$00000001
    __rtentry2.o(.ARM.exidx) refers to __rtentry2.o(.ARM.Collect$$rtentry$$00000008) for .ARM.Collect$$rtentry$$00000008
    __rtentry2.o(.ARM.exidx) refers to __rtentry2.o(.ARM.Collect$$rtentry$$0000000A) for .ARM.Collect$$rtentry$$0000000A
    __rtentry2.o(.ARM.exidx) refers to __rtentry2.o(.ARM.Collect$$rtentry$$0000000B) for .ARM.Collect$$rtentry$$0000000B
    __rtentry2.o(.ARM.exidx) refers to __rtentry2.o(.ARM.Collect$$rtentry$$0000000D) for .ARM.Collect$$rtentry$$0000000D
    __rtentry4.o(.ARM.Collect$$rtentry$$00000004) refers to sys_stackheap_outer.o(.text) for __user_setup_stackheap
    __rtentry4.o(.ARM.exidx) refers to __rtentry4.o(.ARM.Collect$$rtentry$$00000004) for .ARM.Collect$$rtentry$$00000004
    aeabi_ldiv0_sigfpe.o(.text) refers to rt_div0.o(.text) for __rt_div0
    rt_errno_addr.o(.text) refers to rt_errno_addr.o(.bss) for __aeabi_errno_addr_data
    rt_errno_addr_intlibspace.o(.text) refers to libspace.o(.bss) for __libspace_start
    _printf_char_common.o(.text) refers to __printf_flags_ss_wp.o(.text) for __printf
    dleqf.o(x$fpl$dleqf) refers (Special) to usenofp.o(x$fpl$usenofp) for __I$use$fp
    dleqf.o(x$fpl$dleqf) refers to dnaninf.o(x$fpl$dnaninf) for __fpl_dnaninf
    dleqf.o(x$fpl$dleqf) refers to dcmpi.o(x$fpl$dcmpinf) for __fpl_dcmp_Inf
    dsqrt_umaal.o(x$fpl$dsqrt) refers (Special) to usenofp.o(x$fpl$usenofp) for __I$use$fp
    dsqrt_umaal.o(x$fpl$dsqrt) refers to dnaninf.o(x$fpl$dnaninf) for __fpl_dnaninf
    libspace.o(.text) refers to libspace.o(.bss) for __libspace_start
    sys_stackheap_outer.o(.text) refers to libspace.o(.text) for __user_perproc_libspace
    sys_stackheap_outer.o(.text) refers to startup_stm32f40_41xxx.o(.text) for __user_initial_stackheap
    rt_div0.o(.text) refers to defsig_fpe_outer.o(.text) for __rt_SIGFPE
    exit.o(.text) refers to rtexit.o(.ARM.Collect$$rtexit$$00000000) for __rt_exit
    libinit.o(.ARM.Collect$$libinit$$00000000) refers (Special) to libinit2.o(.ARM.Collect$$libinit$$0000002E) for __rt_lib_init_alloca_1
    libinit.o(.ARM.Collect$$libinit$$00000000) refers (Special) to libinit2.o(.ARM.Collect$$libinit$$0000002C) for __rt_lib_init_argv_1
    libinit.o(.ARM.Collect$$libinit$$00000000) refers (Special) to libinit2.o(.ARM.Collect$$libinit$$0000001B) for __rt_lib_init_atexit_1
    libinit.o(.ARM.Collect$$libinit$$00000000) refers (Special) to libinit2.o(.ARM.Collect$$libinit$$00000021) for __rt_lib_init_clock_1
    libinit.o(.ARM.Collect$$libinit$$00000000) refers (Special) to libinit2.o(.ARM.Collect$$libinit$$00000032) for __rt_lib_init_cpp_1
    libinit.o(.ARM.Collect$$libinit$$00000000) refers (Special) to libinit2.o(.ARM.Collect$$libinit$$00000030) for __rt_lib_init_exceptions_1
    libinit.o(.ARM.Collect$$libinit$$00000000) refers (Special) to libinit2.o(.ARM.Collect$$libinit$$00000001) for __rt_lib_init_fp_1
    libinit.o(.ARM.Collect$$libinit$$00000000) refers (Special) to libinit2.o(.ARM.Collect$$libinit$$0000001F) for __rt_lib_init_fp_trap_1
    libinit.o(.ARM.Collect$$libinit$$00000000) refers (Special) to libinit2.o(.ARM.Collect$$libinit$$00000023) for __rt_lib_init_getenv_1
    libinit.o(.ARM.Collect$$libinit$$00000000) refers (Special) to libinit2.o(.ARM.Collect$$libinit$$0000000A) for __rt_lib_init_heap_1
    libinit.o(.ARM.Collect$$libinit$$00000000) refers (Special) to libinit2.o(.ARM.Collect$$libinit$$00000011) for __rt_lib_init_lc_collate_1
    libinit.o(.ARM.Collect$$libinit$$00000000) refers (Special) to libinit2.o(.ARM.Collect$$libinit$$00000013) for __rt_lib_init_lc_ctype_1
    libinit.o(.ARM.Collect$$libinit$$00000000) refers (Special) to libinit2.o(.ARM.Collect$$libinit$$00000015) for __rt_lib_init_lc_monetary_1
    libinit.o(.ARM.Collect$$libinit$$00000000) refers (Special) to libinit2.o(.ARM.Collect$$libinit$$00000017) for __rt_lib_init_lc_numeric_1
    libinit.o(.ARM.Collect$$libinit$$00000000) refers (Special) to libinit2.o(.ARM.Collect$$libinit$$00000019) for __rt_lib_init_lc_time_1
    libinit.o(.ARM.Collect$$libinit$$00000000) refers (Special) to libinit2.o(.ARM.Collect$$libinit$$00000004) for __rt_lib_init_preinit_1
    libinit.o(.ARM.Collect$$libinit$$00000000) refers (Special) to libinit2.o(.ARM.Collect$$libinit$$0000000E) for __rt_lib_init_rand_1
    libinit.o(.ARM.Collect$$libinit$$00000000) refers (Special) to libinit2.o(.ARM.Collect$$libinit$$00000033) for __rt_lib_init_return
    libinit.o(.ARM.Collect$$libinit$$00000000) refers (Special) to libinit2.o(.ARM.Collect$$libinit$$0000001D) for __rt_lib_init_signal_1
    libinit.o(.ARM.Collect$$libinit$$00000000) refers (Special) to libinit2.o(.ARM.Collect$$libinit$$00000025) for __rt_lib_init_stdio_1
    libinit.o(.ARM.Collect$$libinit$$00000000) refers (Special) to libinit2.o(.ARM.Collect$$libinit$$0000000C) for __rt_lib_init_user_alloc_1
    dcmpi.o(x$fpl$dcmpinf) refers (Special) to usenofp.o(x$fpl$usenofp) for __I$use$fp
    rtexit.o(.ARM.Collect$$rtexit$$00000000) refers (Special) to rtexit2.o(.ARM.Collect$$rtexit$$00000004) for __rt_exit_exit
    rtexit.o(.ARM.Collect$$rtexit$$00000000) refers (Special) to rtexit2.o(.ARM.Collect$$rtexit$$00000003) for __rt_exit_ls
    rtexit.o(.ARM.Collect$$rtexit$$00000000) refers (Special) to rtexit2.o(.ARM.Collect$$rtexit$$00000002) for __rt_exit_prels_1
    rtexit.o(.ARM.exidx) refers (Special) to rtexit2.o(.ARM.Collect$$rtexit$$00000004) for __rt_exit_exit
    rtexit.o(.ARM.exidx) refers (Special) to rtexit2.o(.ARM.Collect$$rtexit$$00000003) for __rt_exit_ls
    rtexit.o(.ARM.exidx) refers (Special) to rtexit2.o(.ARM.Collect$$rtexit$$00000002) for __rt_exit_prels_1
    rtexit.o(.ARM.exidx) refers to rtexit.o(.ARM.Collect$$rtexit$$00000000) for .ARM.Collect$$rtexit$$00000000
    defsig_fpe_outer.o(.text) refers to defsig_fpe_inner.o(.text) for __rt_SIGFPE_inner
    defsig_fpe_outer.o(.text) refers to defsig_exit.o(.text) for __sig_exit
    defsig_fpe_formal.o(.text) refers to rt_raise.o(.text) for __rt_raise
    libinit2.o(.ARM.Collect$$libinit$$00000001) refers to fpinit.o(x$fpl$fpinit) for _fp_init
    libinit2.o(.ARM.Collect$$libinit$$00000010) refers to libinit2.o(.ARM.Collect$$libinit$$0000000F) for .ARM.Collect$$libinit$$0000000F
    libinit2.o(.ARM.Collect$$libinit$$00000012) refers to libinit2.o(.ARM.Collect$$libinit$$0000000F) for .ARM.Collect$$libinit$$0000000F
    libinit2.o(.ARM.Collect$$libinit$$00000014) refers to libinit2.o(.ARM.Collect$$libinit$$0000000F) for .ARM.Collect$$libinit$$0000000F
    libinit2.o(.ARM.Collect$$libinit$$00000016) refers to libinit2.o(.ARM.Collect$$libinit$$0000000F) for .ARM.Collect$$libinit$$0000000F
    libinit2.o(.ARM.Collect$$libinit$$00000018) refers to libinit2.o(.ARM.Collect$$libinit$$0000000F) for .ARM.Collect$$libinit$$0000000F
    libinit2.o(.ARM.Collect$$libinit$$00000026) refers to argv_veneer.o(.emb_text) for __ARM_argv_veneer
    libinit2.o(.ARM.Collect$$libinit$$00000027) refers to argv_veneer.o(.emb_text) for __ARM_argv_veneer
    rtexit2.o(.ARM.Collect$$rtexit$$00000003) refers to libshutdown.o(.ARM.Collect$$libshutdown$$00000000) for __rt_lib_shutdown
    rtexit2.o(.ARM.Collect$$rtexit$$00000004) refers to usart.o(.text) for _sys_exit
    rtexit2.o(.ARM.exidx) refers to rtexit2.o(.ARM.Collect$$rtexit$$00000001) for .ARM.Collect$$rtexit$$00000001
    rtexit2.o(.ARM.exidx) refers to rtexit2.o(.ARM.Collect$$rtexit$$00000003) for .ARM.Collect$$rtexit$$00000003
    rtexit2.o(.ARM.exidx) refers to rtexit2.o(.ARM.Collect$$rtexit$$00000004) for .ARM.Collect$$rtexit$$00000004
    rt_raise.o(.text) refers to __raise.o(.text) for __raise
    rt_raise.o(.text) refers to usart.o(.text) for _sys_exit
    defsig_exit.o(.text) refers to usart.o(.text) for _sys_exit
    defsig_fpe_inner.o(.text) refers to defsig_general.o(.text) for __default_signal_display
    argv_veneer.o(.emb_text) refers to no_argv.o(.text) for __ARM_get_argv
    __raise.o(.text) refers to defsig.o(CL$$defsig) for __default_signal_handler
    defsig_general.o(.text) refers to sys_wrch.o(.text) for _ttywrch
    _get_argv_nomalloc.o(.text) refers (Special) to hrguard.o(.text) for __heap_region$guard
    _get_argv_nomalloc.o(.text) refers to defsig_rtmem_outer.o(.text) for __rt_SIGRTMEM
    _get_argv_nomalloc.o(.text) refers to sys_command.o(.text) for _sys_command_string
    libshutdown.o(.ARM.Collect$$libshutdown$$00000000) refers (Special) to libshutdown2.o(.ARM.Collect$$libshutdown$$00000006) for __rt_lib_shutdown_fp_trap_1
    libshutdown.o(.ARM.Collect$$libshutdown$$00000000) refers (Special) to libshutdown2.o(.ARM.Collect$$libshutdown$$0000000E) for __rt_lib_shutdown_heap_1
    libshutdown.o(.ARM.Collect$$libshutdown$$00000000) refers (Special) to libshutdown2.o(.ARM.Collect$$libshutdown$$0000000F) for __rt_lib_shutdown_return
    libshutdown.o(.ARM.Collect$$libshutdown$$00000000) refers (Special) to libshutdown2.o(.ARM.Collect$$libshutdown$$00000009) for __rt_lib_shutdown_signal_1
    libshutdown.o(.ARM.Collect$$libshutdown$$00000000) refers (Special) to libshutdown2.o(.ARM.Collect$$libshutdown$$00000003) for __rt_lib_shutdown_stdio_1
    libshutdown.o(.ARM.Collect$$libshutdown$$00000000) refers (Special) to libshutdown2.o(.ARM.Collect$$libshutdown$$0000000B) for __rt_lib_shutdown_user_alloc_1
    sys_wrch.o(.text) refers (Special) to use_no_semi.o(.text) for __I$use$semihosting
    sys_wrch.o(.text) refers (Special) to indicate_semi.o(.text) for __semihosting_library_function
    sys_command.o(.text) refers (Special) to use_no_semi.o(.text) for __I$use$semihosting
    sys_command.o(.text) refers (Special) to indicate_semi.o(.text) for __semihosting_library_function
    defsig_rtmem_outer.o(.text) refers to defsig_rtmem_inner.o(.text) for __rt_SIGRTMEM_inner
    defsig_rtmem_outer.o(.text) refers to defsig_exit.o(.text) for __sig_exit
    defsig_rtmem_formal.o(.text) refers to rt_raise.o(.text) for __rt_raise
    defsig.o(CL$$defsig) refers to defsig_fpe_inner.o(.text) for __rt_SIGFPE_inner
    defsig.o(CL$$defsig) refers to defsig_rtmem_inner.o(.text) for __rt_SIGRTMEM_inner
    defsig_abrt_inner.o(.text) refers to defsig_general.o(.text) for __default_signal_display
    defsig_rtred_inner.o(.text) refers to defsig_general.o(.text) for __default_signal_display
    defsig_rtmem_inner.o(.text) refers to defsig_general.o(.text) for __default_signal_display
    defsig_stak_inner.o(.text) refers to defsig_general.o(.text) for __default_signal_display
    defsig_pvfn_inner.o(.text) refers to defsig_general.o(.text) for __default_signal_display
    defsig_cppl_inner.o(.text) refers to defsig_general.o(.text) for __default_signal_display
    defsig_segv_inner.o(.text) refers to defsig_general.o(.text) for __default_signal_display
    defsig_other.o(.text) refers to defsig_general.o(.text) for __default_signal_display


==============================================================================

Removing Unused input sections from the image.

    Removing main.o(.rev16_text), (4 bytes).
    Removing main.o(.revsh_text), (4 bytes).
    Removing main.o(.bss), (200 bytes).
    Removing main.o(.constdata), (16 bytes).
    Removing main.o(.constdata), (16 bytes).
    Removing main.o(.constdata), (16 bytes).
    Removing main.o(.constdata), (16 bytes).
    Removing main.o(.constdata), (16 bytes).
    Removing main.o(.constdata), (16 bytes).
    Removing main.o(.constdata), (16 bytes).
    Removing main.o(.constdata), (16 bytes).
    Removing main.o(.constdata), (16 bytes).
    Removing stm32f4xx_it.o(.rev16_text), (4 bytes).
    Removing stm32f4xx_it.o(.revsh_text), (4 bytes).
    Removing system_stm32f4xx.o(.rev16_text), (4 bytes).
    Removing system_stm32f4xx.o(.revsh_text), (4 bytes).
    Removing led.o(.rev16_text), (4 bytes).
    Removing led.o(.revsh_text), (4 bytes).
    Removing key.o(.rev16_text), (4 bytes).
    Removing key.o(.revsh_text), (4 bytes).
    Removing lcd.o(.rev16_text), (4 bytes).
    Removing lcd.o(.revsh_text), (4 bytes).
    Removing myiic.o(.rev16_text), (4 bytes).
    Removing myiic.o(.revsh_text), (4 bytes).
    Removing mpu6050.o(.rev16_text), (4 bytes).
    Removing mpu6050.o(.revsh_text), (4 bytes).
    Removing mpu6050.o(.text), (728 bytes).
    Removing inv_mpu.o(.rev16_text), (4 bytes).
    Removing inv_mpu.o(.revsh_text), (4 bytes).
    Removing inv_mpu.o(.text), (6680 bytes).
    Removing inv_mpu.o(.constdata), (27 bytes).
    Removing inv_mpu.o(.constdata), (12 bytes).
    Removing inv_mpu.o(.constdata), (40 bytes).
    Removing inv_mpu.o(.conststring), (77 bytes).
    Removing inv_mpu.o(.data), (53 bytes).
    Removing inv_mpu_dmp_motion_driver.o(.rev16_text), (4 bytes).
    Removing inv_mpu_dmp_motion_driver.o(.revsh_text), (4 bytes).
    Removing inv_mpu_dmp_motion_driver.o(.text), (2692 bytes).
    Removing inv_mpu_dmp_motion_driver.o(.bss), (16 bytes).
    Removing inv_mpu_dmp_motion_driver.o(.constdata), (3062 bytes).
    Removing mma8452q.o(.rev16_text), (4 bytes).
    Removing mma8452q.o(.revsh_text), (4 bytes).
    Removing dataprocessing.o(.rev16_text), (4 bytes).
    Removing dataprocessing.o(.revsh_text), (4 bytes).
    Removing dataprocessing.o(.text), (160 bytes).
    Removing dataprocessing.o(.data), (2 bytes).
    Removing dataprocessing.o(.data), (2 bytes).
    Removing dataprocessing.o(.data), (2 bytes).
    Removing dataprocessing.o(.data), (12 bytes).
    Removing dataprocessing.o(.data), (4 bytes).
    Removing spi.o(.rev16_text), (4 bytes).
    Removing spi.o(.revsh_text), (4 bytes).
    Removing w25qxx.o(.rev16_text), (4 bytes).
    Removing w25qxx.o(.revsh_text), (4 bytes).
    Removing sram.o(.rev16_text), (4 bytes).
    Removing sram.o(.revsh_text), (4 bytes).
    Removing sram.o(.text), (768 bytes).
    Removing sdio_sdcard.o(.rev16_text), (4 bytes).
    Removing sdio_sdcard.o(.revsh_text), (4 bytes).
    Removing delay.o(.rev16_text), (4 bytes).
    Removing delay.o(.revsh_text), (4 bytes).
    Removing sys.o(.rev16_text), (4 bytes).
    Removing sys.o(.revsh_text), (4 bytes).
    Removing usart.o(.rev16_text), (4 bytes).
    Removing usart.o(.revsh_text), (4 bytes).
    Removing misc.o(.rev16_text), (4 bytes).
    Removing misc.o(.revsh_text), (4 bytes).
    Removing stm32f4xx_fsmc.o(.rev16_text), (4 bytes).
    Removing stm32f4xx_fsmc.o(.revsh_text), (4 bytes).
    Removing stm32f4xx_gpio.o(.rev16_text), (4 bytes).
    Removing stm32f4xx_gpio.o(.revsh_text), (4 bytes).
    Removing stm32f4xx_rcc.o(.rev16_text), (4 bytes).
    Removing stm32f4xx_rcc.o(.revsh_text), (4 bytes).
    Removing stm32f4xx_syscfg.o(.rev16_text), (4 bytes).
    Removing stm32f4xx_syscfg.o(.revsh_text), (4 bytes).
    Removing stm32f4xx_syscfg.o(.text), (124 bytes).
    Removing stm32f4xx_usart.o(.rev16_text), (4 bytes).
    Removing stm32f4xx_usart.o(.revsh_text), (4 bytes).
    Removing stm32f4xx_tim.o(.rev16_text), (4 bytes).
    Removing stm32f4xx_tim.o(.revsh_text), (4 bytes).
    Removing stm32f4xx_spi.o(.rev16_text), (4 bytes).
    Removing stm32f4xx_spi.o(.revsh_text), (4 bytes).
    Removing stm32f4xx_sdio.o(.rev16_text), (4 bytes).
    Removing stm32f4xx_sdio.o(.revsh_text), (4 bytes).
    Removing stm32f4xx_dma.o(.rev16_text), (4 bytes).
    Removing stm32f4xx_dma.o(.revsh_text), (4 bytes).
    Removing usmart.o(.rev16_text), (4 bytes).
    Removing usmart.o(.revsh_text), (4 bytes).
    Removing usmart_config.o(.rev16_text), (4 bytes).
    Removing usmart_config.o(.revsh_text), (4 bytes).
    Removing usmart_str.o(.rev16_text), (4 bytes).
    Removing usmart_str.o(.revsh_text), (4 bytes).
    Removing malloc.o(.rev16_text), (4 bytes).
    Removing malloc.o(.revsh_text), (4 bytes).
    Removing diskio.o(.rev16_text), (4 bytes).
    Removing diskio.o(.revsh_text), (4 bytes).
    Removing exfuns.o(.rev16_text), (4 bytes).
    Removing exfuns.o(.revsh_text), (4 bytes).
    Removing fattester.o(.rev16_text), (4 bytes).
    Removing fattester.o(.revsh_text), (4 bytes).
    Removing usb_core.o(.rev16_text), (4 bytes).
    Removing usb_core.o(.revsh_text), (4 bytes).
    Removing usb_hcd.o(.rev16_text), (4 bytes).
    Removing usb_hcd.o(.revsh_text), (4 bytes).
    Removing usb_hcd_int.o(.rev16_text), (4 bytes).
    Removing usb_hcd_int.o(.revsh_text), (4 bytes).
    Removing usbh_core.o(.rev16_text), (4 bytes).
    Removing usbh_core.o(.revsh_text), (4 bytes).
    Removing usbh_hcs.o(.rev16_text), (4 bytes).
    Removing usbh_hcs.o(.revsh_text), (4 bytes).
    Removing usbh_ioreq.o(.rev16_text), (4 bytes).
    Removing usbh_ioreq.o(.revsh_text), (4 bytes).
    Removing usbh_stdreq.o(.rev16_text), (4 bytes).
    Removing usbh_stdreq.o(.revsh_text), (4 bytes).
    Removing usbh_msc_bot.o(.rev16_text), (4 bytes).
    Removing usbh_msc_bot.o(.revsh_text), (4 bytes).
    Removing usbh_msc_core.o(.rev16_text), (4 bytes).
    Removing usbh_msc_core.o(.revsh_text), (4 bytes).
    Removing usbh_msc_core.o(.text), (612 bytes).
    Removing usbh_msc_core.o(.data), (16 bytes).
    Removing usbh_msc_core.o(.data), (8 bytes).
    Removing usbh_msc_scsi.o(.rev16_text), (4 bytes).
    Removing usbh_msc_scsi.o(.revsh_text), (4 bytes).
    Removing usbh_msc_scsi.o(.bss), (512 bytes).
    Removing usb_bsp.o(.rev16_text), (4 bytes).
    Removing usb_bsp.o(.revsh_text), (4 bytes).
    Removing usbh_usr.o(.rev16_text), (4 bytes).
    Removing usbh_usr.o(.revsh_text), (4 bytes).
    Removing usbh_usr.o(.data), (72 bytes).
    Removing fontupd.o(.rev16_text), (4 bytes).
    Removing fontupd.o(.revsh_text), (4 bytes).
    Removing fontupd.o(.text), (1210 bytes).
    Removing fontupd.o(.constdata), (16 bytes).
    Removing fontupd.o(.conststring), (96 bytes).
    Removing text.o(.rev16_text), (4 bytes).
    Removing text.o(.revsh_text), (4 bytes).
    Removing bmp.o(.rev16_text), (4 bytes).
    Removing bmp.o(.revsh_text), (4 bytes).
    Removing gif.o(.rev16_text), (4 bytes).
    Removing gif.o(.revsh_text), (4 bytes).
    Removing piclib.o(.rev16_text), (4 bytes).
    Removing piclib.o(.revsh_text), (4 bytes).
    Removing tjpgd.o(.rev16_text), (4 bytes).
    Removing tjpgd.o(.revsh_text), (4 bytes).
    Removing arm_common_tables.o(.rev16_text), (4 bytes).
    Removing arm_common_tables.o(.revsh_text), (4 bytes).
    Removing arm_common_tables.o(.constdata), (2048 bytes).
    Removing arm_common_tables.o(.constdata), (128 bytes).
    Removing arm_common_tables.o(.constdata), (256 bytes).
    Removing arm_common_tables.o(.constdata), (512 bytes).
    Removing arm_common_tables.o(.constdata), (1024 bytes).
    Removing arm_common_tables.o(.constdata), (2048 bytes).
    Removing arm_common_tables.o(.constdata), (4096 bytes).
    Removing arm_common_tables.o(.constdata), (8192 bytes).
    Removing arm_common_tables.o(.constdata), (16384 bytes).
    Removing arm_common_tables.o(.constdata), (32768 bytes).
    Removing arm_common_tables.o(.constdata), (24576 bytes).
    Removing arm_common_tables.o(.constdata), (12288 bytes).
    Removing arm_common_tables.o(.constdata), (128 bytes).
    Removing arm_common_tables.o(.constdata), (256 bytes).
    Removing arm_common_tables.o(.constdata), (40 bytes).
    Removing arm_common_tables.o(.constdata), (96 bytes).
    Removing arm_common_tables.o(.constdata), (112 bytes).
    Removing arm_common_tables.o(.constdata), (416 bytes).
    Removing arm_common_tables.o(.constdata), (880 bytes).
    Removing arm_common_tables.o(.constdata), (896 bytes).
    Removing arm_common_tables.o(.constdata), (3600 bytes).
    Removing arm_common_tables.o(.constdata), (7616 bytes).
    Removing arm_common_tables.o(.constdata), (8064 bytes).
    Removing arm_common_tables.o(.constdata), (128 bytes).
    Removing arm_common_tables.o(.constdata), (256 bytes).
    Removing arm_common_tables.o(.constdata), (512 bytes).
    Removing arm_common_tables.o(.constdata), (1024 bytes).
    Removing arm_common_tables.o(.constdata), (2048 bytes).
    Removing arm_common_tables.o(.constdata), (4096 bytes).
    Removing arm_common_tables.o(.constdata), (8192 bytes).
    Removing arm_common_tables.o(.constdata), (16384 bytes).

177 unused section(s) (total 176851 bytes) removed from the image.

==============================================================================

Image Symbol Table

    Local Symbols

    Symbol Name                              Value     Ov Type        Size  Object(Section)

    ../clib/angel/boardlib.s                 0x00000000   Number         0  boardshut.o ABSOLUTE
    ../clib/angel/boardlib.s                 0x00000000   Number         0  boardinit3.o ABSOLUTE
    ../clib/angel/boardlib.s                 0x00000000   Number         0  boardinit2.o ABSOLUTE
    ../clib/angel/boardlib.s                 0x00000000   Number         0  boardinit1.o ABSOLUTE
    ../clib/angel/dczerorl2.s                0x00000000   Number         0  __dczerorl2.o ABSOLUTE
    ../clib/angel/handlers.s                 0x00000000   Number         0  __scatter_zi.o ABSOLUTE
    ../clib/angel/kernel.s                   0x00000000   Number         0  __rtentry4.o ABSOLUTE
    ../clib/angel/kernel.s                   0x00000000   Number         0  rtexit2.o ABSOLUTE
    ../clib/angel/kernel.s                   0x00000000   Number         0  rtexit.o ABSOLUTE
    ../clib/angel/kernel.s                   0x00000000   Number         0  __rtentry2.o ABSOLUTE
    ../clib/angel/kernel.s                   0x00000000   Number         0  __rtentry.o ABSOLUTE
    ../clib/angel/rt.s                       0x00000000   Number         0  aeabi_ldiv0.o ABSOLUTE
    ../clib/angel/rt.s                       0x00000000   Number         0  rt_errno_addr_intlibspace.o ABSOLUTE
    ../clib/angel/rt.s                       0x00000000   Number         0  rt_raise.o ABSOLUTE
    ../clib/angel/rt.s                       0x00000000   Number         0  rt_errno_addr.o ABSOLUTE
    ../clib/angel/rt.s                       0x00000000   Number         0  aeabi_ldiv0_sigfpe.o ABSOLUTE
    ../clib/angel/rt.s                       0x00000000   Number         0  rt_div0.o ABSOLUTE
    ../clib/angel/scatter.s                  0x00000000   Number         0  __scatter.o ABSOLUTE
    ../clib/angel/startup.s                  0x00000000   Number         0  __main.o ABSOLUTE
    ../clib/angel/sys.s                      0x00000000   Number         0  libspace.o ABSOLUTE
    ../clib/angel/sys.s                      0x00000000   Number         0  sys_stackheap_outer.o ABSOLUTE
    ../clib/angel/sys.s                      0x00000000   Number         0  use_no_semi_2.o ABSOLUTE
    ../clib/angel/sys.s                      0x00000000   Number         0  indicate_semi.o ABSOLUTE
    ../clib/angel/sys.s                      0x00000000   Number         0  use_no_semi.o ABSOLUTE
    ../clib/angel/sysapp.c                   0x00000000   Number         0  sys_command.o ABSOLUTE
    ../clib/angel/sysapp.c                   0x00000000   Number         0  sys_wrch.o ABSOLUTE
    ../clib/armsys.c                         0x00000000   Number         0  argv_veneer.o ABSOLUTE
    ../clib/armsys.c                         0x00000000   Number         0  no_argv.o ABSOLUTE
    ../clib/armsys.c                         0x00000000   Number         0  _get_argv_nomalloc.o ABSOLUTE
    ../clib/armsys.c                         0x00000000   Number         0  argv_veneer.o ABSOLUTE
    ../clib/fenv.c                           0x00000000   Number         0  _rserrno.o ABSOLUTE
    ../clib/heapalloc.c                      0x00000000   Number         0  hrguard.o ABSOLUTE
    ../clib/heapaux.c                        0x00000000   Number         0  heapauxi.o ABSOLUTE
    ../clib/libinit.s                        0x00000000   Number         0  libshutdown2.o ABSOLUTE
    ../clib/libinit.s                        0x00000000   Number         0  libinit2.o ABSOLUTE
    ../clib/libinit.s                        0x00000000   Number         0  libshutdown.o ABSOLUTE
    ../clib/libinit.s                        0x00000000   Number         0  libinit.o ABSOLUTE
    ../clib/longlong.s                       0x00000000   Number         0  lludivv7m.o ABSOLUTE
    ../clib/longlong.s                       0x00000000   Number         0  llsdiv.o ABSOLUTE
    ../clib/memcpset.s                       0x00000000   Number         0  rt_memcpy_w.o ABSOLUTE
    ../clib/memcpset.s                       0x00000000   Number         0  rt_memclr.o ABSOLUTE
    ../clib/memcpset.s                       0x00000000   Number         0  aeabi_memset.o ABSOLUTE
    ../clib/memcpset.s                       0x00000000   Number         0  rt_memclr_w.o ABSOLUTE
    ../clib/memcpset.s                       0x00000000   Number         0  strcmpv7m.o ABSOLUTE
    ../clib/memcpset.s                       0x00000000   Number         0  rt_memcpy_v6.o ABSOLUTE
    ../clib/misc.s                           0x00000000   Number         0  printf_stubs.o ABSOLUTE
    ../clib/printf.c                         0x00000000   Number         0  __printf_ss_wp.o ABSOLUTE
    ../clib/printf.c                         0x00000000   Number         0  _printf_char_common.o ABSOLUTE
    ../clib/printf.c                         0x00000000   Number         0  __printf_flags_wp.o ABSOLUTE
    ../clib/printf.c                         0x00000000   Number         0  __printf_wp.o ABSOLUTE
    ../clib/printf.c                         0x00000000   Number         0  __printf_flags_ss.o ABSOLUTE
    ../clib/printf.c                         0x00000000   Number         0  __printf_ss.o ABSOLUTE
    ../clib/printf.c                         0x00000000   Number         0  __printf_flags.o ABSOLUTE
    ../clib/printf.c                         0x00000000   Number         0  _printf_hex_int_ll_ptr.o ABSOLUTE
    ../clib/printf.c                         0x00000000   Number         0  _printf_hex_int_ptr.o ABSOLUTE
    ../clib/printf.c                         0x00000000   Number         0  _printf_hex_ptr.o ABSOLUTE
    ../clib/printf.c                         0x00000000   Number         0  _printf_hex_int_ll.o ABSOLUTE
    ../clib/printf.c                         0x00000000   Number         0  _printf_hex_int.o ABSOLUTE
    ../clib/printf.c                         0x00000000   Number         0  _printf_char_file.o ABSOLUTE
    ../clib/printf.c                         0x00000000   Number         0  __printf_nopercent.o ABSOLUTE
    ../clib/printf.c                         0x00000000   Number         0  _printf_hex_ll.o ABSOLUTE
    ../clib/printf.c                         0x00000000   Number         0  _printf_dec.o ABSOLUTE
    ../clib/printf.c                         0x00000000   Number         0  _printf_str.o ABSOLUTE
    ../clib/printf.c                         0x00000000   Number         0  _printf_pad.o ABSOLUTE
    ../clib/printf.c                         0x00000000   Number         0  __printf.o ABSOLUTE
    ../clib/printf.c                         0x00000000   Number         0  noretval__2printf.o ABSOLUTE
    ../clib/printf.c                         0x00000000   Number         0  __2printf.o ABSOLUTE
    ../clib/printf.c                         0x00000000   Number         0  _printf_hex_ll_ptr.o ABSOLUTE
    ../clib/printf.c                         0x00000000   Number         0  _printf_char.o ABSOLUTE
    ../clib/printf.c                         0x00000000   Number         0  _printf_intcommon.o ABSOLUTE
    ../clib/printf.c                         0x00000000   Number         0  __printf_flags_ss_wp.o ABSOLUTE
    ../clib/printf_percent.s                 0x00000000   Number         0  _printf_d.o ABSOLUTE
    ../clib/printf_percent.s                 0x00000000   Number         0  _printf_u.o ABSOLUTE
    ../clib/printf_percent.s                 0x00000000   Number         0  _printf_percent.o ABSOLUTE
    ../clib/printf_percent.s                 0x00000000   Number         0  _printf_percent_end.o ABSOLUTE
    ../clib/printf_percent.s                 0x00000000   Number         0  _printf_c.o ABSOLUTE
    ../clib/printf_percent.s                 0x00000000   Number         0  _printf_s.o ABSOLUTE
    ../clib/printf_percent.s                 0x00000000   Number         0  _printf_x.o ABSOLUTE
    ../clib/signal.c                         0x00000000   Number         0  defsig_fpe_outer.o ABSOLUTE
    ../clib/signal.c                         0x00000000   Number         0  defsig_other.o ABSOLUTE
    ../clib/signal.c                         0x00000000   Number         0  defsig_rtmem_formal.o ABSOLUTE
    ../clib/signal.c                         0x00000000   Number         0  defsig_segv_inner.o ABSOLUTE
    ../clib/signal.c                         0x00000000   Number         0  defsig_rtmem_outer.o ABSOLUTE
    ../clib/signal.c                         0x00000000   Number         0  defsig_general.o ABSOLUTE
    ../clib/signal.c                         0x00000000   Number         0  defsig_cppl_inner.o ABSOLUTE
    ../clib/signal.c                         0x00000000   Number         0  defsig_pvfn_inner.o ABSOLUTE
    ../clib/signal.c                         0x00000000   Number         0  defsig_stak_inner.o ABSOLUTE
    ../clib/signal.c                         0x00000000   Number         0  defsig_fpe_formal.o ABSOLUTE
    ../clib/signal.c                         0x00000000   Number         0  defsig_exit.o ABSOLUTE
    ../clib/signal.c                         0x00000000   Number         0  defsig_fpe_inner.o ABSOLUTE
    ../clib/signal.c                         0x00000000   Number         0  defsig_rtmem_inner.o ABSOLUTE
    ../clib/signal.c                         0x00000000   Number         0  __raise.o ABSOLUTE
    ../clib/signal.c                         0x00000000   Number         0  defsig_rtred_inner.o ABSOLUTE
    ../clib/signal.c                         0x00000000   Number         0  defsig_abrt_inner.o ABSOLUTE
    ../clib/signal.s                         0x00000000   Number         0  defsig.o ABSOLUTE
    ../clib/stdio.c                          0x00000000   Number         0  ferror.o ABSOLUTE
    ../clib/stdio.c                          0x00000000   Number         0  ferror_locked.o ABSOLUTE
    ../clib/stdlib.c                         0x00000000   Number         0  exit.o ABSOLUTE
    ../clib/string.c                         0x00000000   Number         0  strcat.o ABSOLUTE
    ../clib/string.c                         0x00000000   Number         0  memcmp.o ABSOLUTE
    ../clib/string.c                         0x00000000   Number         0  strlen.o ABSOLUTE
    ../clib/string.c                         0x00000000   Number         0  strcpy.o ABSOLUTE
    ../fplib/basic.s                         0x00000000   Number         0  basic.o ABSOLUTE
    ../fplib/d2f.s                           0x00000000   Number         0  d2f.o ABSOLUTE
    ../fplib/daddsub.s                       0x00000000   Number         0  daddsub_clz.o ABSOLUTE
    ../fplib/dcmpi.s                         0x00000000   Number         0  dcmpi.o ABSOLUTE
    ../fplib/ddiv.s                          0x00000000   Number         0  ddiv.o ABSOLUTE
    ../fplib/dfixu.s                         0x00000000   Number         0  dfixu.o ABSOLUTE
    ../fplib/dflt.s                          0x00000000   Number         0  dflt_clz.o ABSOLUTE
    ../fplib/dleqf.s                         0x00000000   Number         0  dleqf.o ABSOLUTE
    ../fplib/dmul.s                          0x00000000   Number         0  dmul.o ABSOLUTE
    ../fplib/dnaninf.s                       0x00000000   Number         0  dnaninf.o ABSOLUTE
    ../fplib/dretinf.s                       0x00000000   Number         0  dretinf.o ABSOLUTE
    ../fplib/dsqrt.s                         0x00000000   Number         0  dsqrt_umaal.o ABSOLUTE
    ../fplib/f2d.s                           0x00000000   Number         0  f2d.o ABSOLUTE
    ../fplib/fnaninf.s                       0x00000000   Number         0  fnaninf.o ABSOLUTE
    ../fplib/fpinit.s                        0x00000000   Number         0  fpinit.o ABSOLUTE
    ../fplib/fretinf.s                       0x00000000   Number         0  fretinf.o ABSOLUTE
    ../fplib/usenofp.s                       0x00000000   Number         0  usenofp.o ABSOLUTE
    ../mathlib/asin.c                        0x00000000   Number         0  asin.o ABSOLUTE
    ../mathlib/asin.c                        0x00000000   Number         0  asin_x.o ABSOLUTE
    ../mathlib/atan.c                        0x00000000   Number         0  atan.o ABSOLUTE
    ../mathlib/atan.c                        0x00000000   Number         0  atan_x.o ABSOLUTE
    ../mathlib/atan2.c                       0x00000000   Number         0  atan2_x.o ABSOLUTE
    ../mathlib/atan2.c                       0x00000000   Number         0  atan2.o ABSOLUTE
    ../mathlib/dunder.c                      0x00000000   Number         0  dunder.o ABSOLUTE
    ../mathlib/fabs.c                        0x00000000   Number         0  fabs.o ABSOLUTE
    ../mathlib/fpclassify.c                  0x00000000   Number         0  fpclassify.o ABSOLUTE
    ../mathlib/poly.c                        0x00000000   Number         0  poly.o ABSOLUTE
    ../mathlib/qnan.c                        0x00000000   Number         0  qnan.o ABSOLUTE
    ../mathlib/sqrt.c                        0x00000000   Number         0  sqrt.o ABSOLUTE
    ../mathlib/sqrt.c                        0x00000000   Number         0  sqrt_x.o ABSOLUTE
    ..\CORE\startup_stm32f40_41xxx.s         0x00000000   Number         0  startup_stm32f40_41xxx.o ABSOLUTE
    ..\CommonTables\arm_common_tables.c      0x00000000   Number         0  arm_common_tables.o ABSOLUTE
    ..\FATFS\exfuns\exfuns.c                 0x00000000   Number         0  exfuns.o ABSOLUTE
    ..\FATFS\exfuns\fattester.c              0x00000000   Number         0  fattester.o ABSOLUTE
    ..\FATFS\src\diskio.c                    0x00000000   Number         0  diskio.o ABSOLUTE
    ..\FATFS\src\ff.c                        0x00000000   Number         0  ff.o ABSOLUTE
    ..\FATFS\src\option\cc936.c              0x00000000   Number         0  cc936.o ABSOLUTE
    ..\FWLIB\src\misc.c                      0x00000000   Number         0  misc.o ABSOLUTE
    ..\FWLIB\src\stm32f4xx_dma.c             0x00000000   Number         0  stm32f4xx_dma.o ABSOLUTE
    ..\FWLIB\src\stm32f4xx_fsmc.c            0x00000000   Number         0  stm32f4xx_fsmc.o ABSOLUTE
    ..\FWLIB\src\stm32f4xx_gpio.c            0x00000000   Number         0  stm32f4xx_gpio.o ABSOLUTE
    ..\FWLIB\src\stm32f4xx_rcc.c             0x00000000   Number         0  stm32f4xx_rcc.o ABSOLUTE
    ..\FWLIB\src\stm32f4xx_sdio.c            0x00000000   Number         0  stm32f4xx_sdio.o ABSOLUTE
    ..\FWLIB\src\stm32f4xx_spi.c             0x00000000   Number         0  stm32f4xx_spi.o ABSOLUTE
    ..\FWLIB\src\stm32f4xx_syscfg.c          0x00000000   Number         0  stm32f4xx_syscfg.o ABSOLUTE
    ..\FWLIB\src\stm32f4xx_tim.c             0x00000000   Number         0  stm32f4xx_tim.o ABSOLUTE
    ..\FWLIB\src\stm32f4xx_usart.c           0x00000000   Number         0  stm32f4xx_usart.o ABSOLUTE
    ..\HARDWARE\DATAPROCESSING\dataprocessing.c 0x00000000   Number         0  dataprocessing.o ABSOLUTE
    ..\HARDWARE\IIC\myiic.c                  0x00000000   Number         0  myiic.o ABSOLUTE
    ..\HARDWARE\KEY\key.c                    0x00000000   Number         0  key.o ABSOLUTE
    ..\HARDWARE\LCD\lcd.c                    0x00000000   Number         0  lcd.o ABSOLUTE
    ..\HARDWARE\LED\led.c                    0x00000000   Number         0  led.o ABSOLUTE
    ..\HARDWARE\MMA8452Q\mma8452q.c          0x00000000   Number         0  mma8452q.o ABSOLUTE
    ..\HARDWARE\MPU6050\eMPL\inv_mpu.c       0x00000000   Number         0  inv_mpu.o ABSOLUTE
    ..\HARDWARE\MPU6050\eMPL\inv_mpu_dmp_motion_driver.c 0x00000000   Number         0  inv_mpu_dmp_motion_driver.o ABSOLUTE
    ..\HARDWARE\MPU6050\mpu6050.c            0x00000000   Number         0  mpu6050.o ABSOLUTE
    ..\HARDWARE\SDIO_SDCARD\sdio_sdcard.c    0x00000000   Number         0  sdio_sdcard.o ABSOLUTE
    ..\HARDWARE\SPI\spi.c                    0x00000000   Number         0  spi.o ABSOLUTE
    ..\HARDWARE\SRAM\sram.c                  0x00000000   Number         0  sram.o ABSOLUTE
    ..\HARDWARE\TIMER\timer.c                0x00000000   Number         0  timer.o ABSOLUTE
    ..\HARDWARE\W25Q\w25qxx.c                0x00000000   Number         0  w25qxx.o ABSOLUTE
    ..\MALLOC\malloc.c                       0x00000000   Number         0  malloc.o ABSOLUTE
    ..\PICTURE\bmp.c                         0x00000000   Number         0  bmp.o ABSOLUTE
    ..\PICTURE\gif.c                         0x00000000   Number         0  gif.o ABSOLUTE
    ..\PICTURE\piclib.c                      0x00000000   Number         0  piclib.o ABSOLUTE
    ..\PICTURE\tjpgd.c                       0x00000000   Number         0  tjpgd.o ABSOLUTE
    ..\SYSTEM\delay\delay.c                  0x00000000   Number         0  delay.o ABSOLUTE
    ..\SYSTEM\sys\sys.c                      0x00000000   Number         0  sys.o ABSOLUTE
    ..\SYSTEM\usart\usart.c                  0x00000000   Number         0  usart.o ABSOLUTE
    ..\TEXT\fontupd.c                        0x00000000   Number         0  fontupd.o ABSOLUTE
    ..\TEXT\text.c                           0x00000000   Number         0  text.o ABSOLUTE
    ..\USB\STM32_USB_HOST_Library\Class\MSC\src\usbh_msc_bot.c 0x00000000   Number         0  usbh_msc_bot.o ABSOLUTE
    ..\USB\STM32_USB_HOST_Library\Class\MSC\src\usbh_msc_core.c 0x00000000   Number         0  usbh_msc_core.o ABSOLUTE
    ..\USB\STM32_USB_HOST_Library\Class\MSC\src\usbh_msc_scsi.c 0x00000000   Number         0  usbh_msc_scsi.o ABSOLUTE
    ..\USB\STM32_USB_HOST_Library\Core\src\usbh_core.c 0x00000000   Number         0  usbh_core.o ABSOLUTE
    ..\USB\STM32_USB_HOST_Library\Core\src\usbh_hcs.c 0x00000000   Number         0  usbh_hcs.o ABSOLUTE
    ..\USB\STM32_USB_HOST_Library\Core\src\usbh_ioreq.c 0x00000000   Number         0  usbh_ioreq.o ABSOLUTE
    ..\USB\STM32_USB_HOST_Library\Core\src\usbh_stdreq.c 0x00000000   Number         0  usbh_stdreq.o ABSOLUTE
    ..\USB\STM32_USB_OTG_Driver\src\usb_core.c 0x00000000   Number         0  usb_core.o ABSOLUTE
    ..\USB\STM32_USB_OTG_Driver\src\usb_hcd.c 0x00000000   Number         0  usb_hcd.o ABSOLUTE
    ..\USB\STM32_USB_OTG_Driver\src\usb_hcd_int.c 0x00000000   Number         0  usb_hcd_int.o ABSOLUTE
    ..\USB\USB_APP\usb_bsp.c                 0x00000000   Number         0  usb_bsp.o ABSOLUTE
    ..\USB\USB_APP\usbh_usr.c                0x00000000   Number         0  usbh_usr.o ABSOLUTE
    ..\USMART\usmart.c                       0x00000000   Number         0  usmart.o ABSOLUTE
    ..\USMART\usmart_config.c                0x00000000   Number         0  usmart_config.o ABSOLUTE
    ..\USMART\usmart_str.c                   0x00000000   Number         0  usmart_str.o ABSOLUTE
    ..\\CommonTables\\arm_common_tables.c    0x00000000   Number         0  arm_common_tables.o ABSOLUTE
    ..\\FATFS\\exfuns\\exfuns.c              0x00000000   Number         0  exfuns.o ABSOLUTE
    ..\\FATFS\\exfuns\\fattester.c           0x00000000   Number         0  fattester.o ABSOLUTE
    ..\\FATFS\\src\\diskio.c                 0x00000000   Number         0  diskio.o ABSOLUTE
    ..\\FWLIB\\src\\misc.c                   0x00000000   Number         0  misc.o ABSOLUTE
    ..\\FWLIB\\src\\stm32f4xx_dma.c          0x00000000   Number         0  stm32f4xx_dma.o ABSOLUTE
    ..\\FWLIB\\src\\stm32f4xx_fsmc.c         0x00000000   Number         0  stm32f4xx_fsmc.o ABSOLUTE
    ..\\FWLIB\\src\\stm32f4xx_gpio.c         0x00000000   Number         0  stm32f4xx_gpio.o ABSOLUTE
    ..\\FWLIB\\src\\stm32f4xx_rcc.c          0x00000000   Number         0  stm32f4xx_rcc.o ABSOLUTE
    ..\\FWLIB\\src\\stm32f4xx_sdio.c         0x00000000   Number         0  stm32f4xx_sdio.o ABSOLUTE
    ..\\FWLIB\\src\\stm32f4xx_spi.c          0x00000000   Number         0  stm32f4xx_spi.o ABSOLUTE
    ..\\FWLIB\\src\\stm32f4xx_syscfg.c       0x00000000   Number         0  stm32f4xx_syscfg.o ABSOLUTE
    ..\\FWLIB\\src\\stm32f4xx_tim.c          0x00000000   Number         0  stm32f4xx_tim.o ABSOLUTE
    ..\\FWLIB\\src\\stm32f4xx_usart.c        0x00000000   Number         0  stm32f4xx_usart.o ABSOLUTE
    ..\\HARDWARE\\DATAPROCESSING\\dataprocessing.c 0x00000000   Number         0  dataprocessing.o ABSOLUTE
    ..\\HARDWARE\\IIC\\myiic.c               0x00000000   Number         0  myiic.o ABSOLUTE
    ..\\HARDWARE\\KEY\\key.c                 0x00000000   Number         0  key.o ABSOLUTE
    ..\\HARDWARE\\LCD\\lcd.c                 0x00000000   Number         0  lcd.o ABSOLUTE
    ..\\HARDWARE\\LED\\led.c                 0x00000000   Number         0  led.o ABSOLUTE
    ..\\HARDWARE\\MMA8452Q\\mma8452q.c       0x00000000   Number         0  mma8452q.o ABSOLUTE
    ..\\HARDWARE\\MPU6050\\eMPL\\inv_mpu.c   0x00000000   Number         0  inv_mpu.o ABSOLUTE
    ..\\HARDWARE\\MPU6050\\eMPL\\inv_mpu_dmp_motion_driver.c 0x00000000   Number         0  inv_mpu_dmp_motion_driver.o ABSOLUTE
    ..\\HARDWARE\\MPU6050\\mpu6050.c         0x00000000   Number         0  mpu6050.o ABSOLUTE
    ..\\HARDWARE\\SDIO_SDCARD\\sdio_sdcard.c 0x00000000   Number         0  sdio_sdcard.o ABSOLUTE
    ..\\HARDWARE\\SPI\\spi.c                 0x00000000   Number         0  spi.o ABSOLUTE
    ..\\HARDWARE\\SRAM\\sram.c               0x00000000   Number         0  sram.o ABSOLUTE
    ..\\HARDWARE\\W25Q\\w25qxx.c             0x00000000   Number         0  w25qxx.o ABSOLUTE
    ..\\MALLOC\\malloc.c                     0x00000000   Number         0  malloc.o ABSOLUTE
    ..\\PICTURE\\bmp.c                       0x00000000   Number         0  bmp.o ABSOLUTE
    ..\\PICTURE\\gif.c                       0x00000000   Number         0  gif.o ABSOLUTE
    ..\\PICTURE\\piclib.c                    0x00000000   Number         0  piclib.o ABSOLUTE
    ..\\PICTURE\\tjpgd.c                     0x00000000   Number         0  tjpgd.o ABSOLUTE
    ..\\SYSTEM\\delay\\delay.c               0x00000000   Number         0  delay.o ABSOLUTE
    ..\\SYSTEM\\sys\\sys.c                   0x00000000   Number         0  sys.o ABSOLUTE
    ..\\SYSTEM\\usart\\usart.c               0x00000000   Number         0  usart.o ABSOLUTE
    ..\\TEXT\\fontupd.c                      0x00000000   Number         0  fontupd.o ABSOLUTE
    ..\\TEXT\\text.c                         0x00000000   Number         0  text.o ABSOLUTE
    ..\\USB\\STM32_USB_HOST_Library\\Class\\MSC\\src\\usbh_msc_bot.c 0x00000000   Number         0  usbh_msc_bot.o ABSOLUTE
    ..\\USB\\STM32_USB_HOST_Library\\Class\\MSC\\src\\usbh_msc_core.c 0x00000000   Number         0  usbh_msc_core.o ABSOLUTE
    ..\\USB\\STM32_USB_HOST_Library\\Class\\MSC\\src\\usbh_msc_scsi.c 0x00000000   Number         0  usbh_msc_scsi.o ABSOLUTE
    ..\\USB\\STM32_USB_HOST_Library\\Core\\src\\usbh_core.c 0x00000000   Number         0  usbh_core.o ABSOLUTE
    ..\\USB\\STM32_USB_HOST_Library\\Core\\src\\usbh_hcs.c 0x00000000   Number         0  usbh_hcs.o ABSOLUTE
    ..\\USB\\STM32_USB_HOST_Library\\Core\\src\\usbh_ioreq.c 0x00000000   Number         0  usbh_ioreq.o ABSOLUTE
    ..\\USB\\STM32_USB_HOST_Library\\Core\\src\\usbh_stdreq.c 0x00000000   Number         0  usbh_stdreq.o ABSOLUTE
    ..\\USB\\STM32_USB_OTG_Driver\\src\\usb_core.c 0x00000000   Number         0  usb_core.o ABSOLUTE
    ..\\USB\\STM32_USB_OTG_Driver\\src\\usb_hcd.c 0x00000000   Number         0  usb_hcd.o ABSOLUTE
    ..\\USB\\STM32_USB_OTG_Driver\\src\\usb_hcd_int.c 0x00000000   Number         0  usb_hcd_int.o ABSOLUTE
    ..\\USB\\USB_APP\\usb_bsp.c              0x00000000   Number         0  usb_bsp.o ABSOLUTE
    ..\\USB\\USB_APP\\usbh_usr.c             0x00000000   Number         0  usbh_usr.o ABSOLUTE
    ..\\USMART\\usmart.c                     0x00000000   Number         0  usmart.o ABSOLUTE
    ..\\USMART\\usmart_config.c              0x00000000   Number         0  usmart_config.o ABSOLUTE
    ..\\USMART\\usmart_str.c                 0x00000000   Number         0  usmart_str.o ABSOLUTE
    dc.s                                     0x00000000   Number         0  dc.o ABSOLUTE
    main.c                                   0x00000000   Number         0  main.o ABSOLUTE
    main.c                                   0x00000000   Number         0  main.o ABSOLUTE
    stm32f4xx_it.c                           0x00000000   Number         0  stm32f4xx_it.o ABSOLUTE
    stm32f4xx_it.c                           0x00000000   Number         0  stm32f4xx_it.o ABSOLUTE
    system_stm32f4xx.c                       0x00000000   Number         0  system_stm32f4xx.o ABSOLUTE
    system_stm32f4xx.c                       0x00000000   Number         0  system_stm32f4xx.o ABSOLUTE
    RESET                                    0x08000000   Section      392  startup_stm32f40_41xxx.o(RESET)
    !!!main                                  0x08000188   Section        8  __main.o(!!!main)
    !!!scatter                               0x08000190   Section       52  __scatter.o(!!!scatter)
    !!dczerorl2                              0x080001c4   Section       90  __dczerorl2.o(!!dczerorl2)
    !!handler_zi                             0x08000220   Section       28  __scatter_zi.o(!!handler_zi)
    .ARM.Collect$$_printf_percent$$00000000  0x0800023c   Section        0  _printf_percent.o(.ARM.Collect$$_printf_percent$$00000000)
    .ARM.Collect$$_printf_percent$$00000009  0x0800023c   Section        6  _printf_d.o(.ARM.Collect$$_printf_percent$$00000009)
    .ARM.Collect$$_printf_percent$$0000000A  0x08000242   Section        6  _printf_u.o(.ARM.Collect$$_printf_percent$$0000000A)
    .ARM.Collect$$_printf_percent$$0000000C  0x08000248   Section        6  _printf_x.o(.ARM.Collect$$_printf_percent$$0000000C)
    .ARM.Collect$$_printf_percent$$00000013  0x0800024e   Section        6  _printf_c.o(.ARM.Collect$$_printf_percent$$00000013)
    .ARM.Collect$$_printf_percent$$00000014  0x08000254   Section        6  _printf_s.o(.ARM.Collect$$_printf_percent$$00000014)
    .ARM.Collect$$_printf_percent$$00000017  0x0800025a   Section        4  _printf_percent_end.o(.ARM.Collect$$_printf_percent$$00000017)
    .ARM.Collect$$libinit$$00000000          0x0800025e   Section        2  libinit.o(.ARM.Collect$$libinit$$00000000)
    .ARM.Collect$$libinit$$00000001          0x08000260   Section        4  libinit2.o(.ARM.Collect$$libinit$$00000001)
    .ARM.Collect$$libinit$$00000004          0x08000264   Section        0  libinit2.o(.ARM.Collect$$libinit$$00000004)
    .ARM.Collect$$libinit$$0000000A          0x08000264   Section        0  libinit2.o(.ARM.Collect$$libinit$$0000000A)
    .ARM.Collect$$libinit$$0000000C          0x08000264   Section        0  libinit2.o(.ARM.Collect$$libinit$$0000000C)
    .ARM.Collect$$libinit$$0000000E          0x08000264   Section        0  libinit2.o(.ARM.Collect$$libinit$$0000000E)
    .ARM.Collect$$libinit$$00000011          0x08000264   Section        0  libinit2.o(.ARM.Collect$$libinit$$00000011)
    .ARM.Collect$$libinit$$00000013          0x08000264   Section        0  libinit2.o(.ARM.Collect$$libinit$$00000013)
    .ARM.Collect$$libinit$$00000015          0x08000264   Section        0  libinit2.o(.ARM.Collect$$libinit$$00000015)
    .ARM.Collect$$libinit$$00000017          0x08000264   Section        0  libinit2.o(.ARM.Collect$$libinit$$00000017)
    .ARM.Collect$$libinit$$00000019          0x08000264   Section        0  libinit2.o(.ARM.Collect$$libinit$$00000019)
    .ARM.Collect$$libinit$$0000001B          0x08000264   Section        0  libinit2.o(.ARM.Collect$$libinit$$0000001B)
    .ARM.Collect$$libinit$$0000001D          0x08000264   Section        0  libinit2.o(.ARM.Collect$$libinit$$0000001D)
    .ARM.Collect$$libinit$$0000001F          0x08000264   Section        0  libinit2.o(.ARM.Collect$$libinit$$0000001F)
    .ARM.Collect$$libinit$$00000021          0x08000264   Section        0  libinit2.o(.ARM.Collect$$libinit$$00000021)
    .ARM.Collect$$libinit$$00000023          0x08000264   Section        0  libinit2.o(.ARM.Collect$$libinit$$00000023)
    .ARM.Collect$$libinit$$00000025          0x08000264   Section        0  libinit2.o(.ARM.Collect$$libinit$$00000025)
    .ARM.Collect$$libinit$$0000002C          0x08000264   Section        0  libinit2.o(.ARM.Collect$$libinit$$0000002C)
    .ARM.Collect$$libinit$$0000002E          0x08000264   Section        0  libinit2.o(.ARM.Collect$$libinit$$0000002E)
    .ARM.Collect$$libinit$$00000030          0x08000264   Section        0  libinit2.o(.ARM.Collect$$libinit$$00000030)
    .ARM.Collect$$libinit$$00000032          0x08000264   Section        0  libinit2.o(.ARM.Collect$$libinit$$00000032)
    .ARM.Collect$$libinit$$00000033          0x08000264   Section        2  libinit2.o(.ARM.Collect$$libinit$$00000033)
    .ARM.Collect$$libshutdown$$00000000      0x08000266   Section        2  libshutdown.o(.ARM.Collect$$libshutdown$$00000000)
    .ARM.Collect$$libshutdown$$00000003      0x08000268   Section        0  libshutdown2.o(.ARM.Collect$$libshutdown$$00000003)
    .ARM.Collect$$libshutdown$$00000006      0x08000268   Section        0  libshutdown2.o(.ARM.Collect$$libshutdown$$00000006)
    .ARM.Collect$$libshutdown$$00000009      0x08000268   Section        0  libshutdown2.o(.ARM.Collect$$libshutdown$$00000009)
    .ARM.Collect$$libshutdown$$0000000B      0x08000268   Section        0  libshutdown2.o(.ARM.Collect$$libshutdown$$0000000B)
    .ARM.Collect$$libshutdown$$0000000E      0x08000268   Section        0  libshutdown2.o(.ARM.Collect$$libshutdown$$0000000E)
    .ARM.Collect$$libshutdown$$0000000F      0x08000268   Section        2  libshutdown2.o(.ARM.Collect$$libshutdown$$0000000F)
    .ARM.Collect$$rtentry$$00000000          0x0800026a   Section        0  __rtentry.o(.ARM.Collect$$rtentry$$00000000)
    .ARM.Collect$$rtentry$$00000002          0x0800026a   Section        0  __rtentry2.o(.ARM.Collect$$rtentry$$00000002)
    .ARM.Collect$$rtentry$$00000004          0x0800026a   Section        6  __rtentry4.o(.ARM.Collect$$rtentry$$00000004)
    .ARM.Collect$$rtentry$$00000009          0x08000270   Section        0  __rtentry2.o(.ARM.Collect$$rtentry$$00000009)
    .ARM.Collect$$rtentry$$0000000A          0x08000270   Section        4  __rtentry2.o(.ARM.Collect$$rtentry$$0000000A)
    .ARM.Collect$$rtentry$$0000000C          0x08000274   Section        0  __rtentry2.o(.ARM.Collect$$rtentry$$0000000C)
    .ARM.Collect$$rtentry$$0000000D          0x08000274   Section        8  __rtentry2.o(.ARM.Collect$$rtentry$$0000000D)
    .ARM.Collect$$rtexit$$00000000           0x0800027c   Section        2  rtexit.o(.ARM.Collect$$rtexit$$00000000)
    .ARM.Collect$$rtexit$$00000002           0x0800027e   Section        0  rtexit2.o(.ARM.Collect$$rtexit$$00000002)
    .ARM.Collect$$rtexit$$00000003           0x0800027e   Section        4  rtexit2.o(.ARM.Collect$$rtexit$$00000003)
    .ARM.Collect$$rtexit$$00000004           0x08000282   Section        6  rtexit2.o(.ARM.Collect$$rtexit$$00000004)
    .emb_text                                0x08000288   Section       16  sys.o(.emb_text)
    $v0                                      0x08000288   Number         0  sys.o(.emb_text)
    .text                                    0x08000298   Section        0  main.o(.text)
    .text                                    0x080004ec   Section        0  stm32f4xx_it.o(.text)
    .text                                    0x08000500   Section        0  system_stm32f4xx.o(.text)
    SetSysClock                              0x08000501   Thumb Code   162  system_stm32f4xx.o(.text)
    .text                                    0x0800067c   Section        0  led.o(.text)
    .text                                    0x080006bc   Section        0  key.o(.text)
    .text                                    0x080007c0   Section        0  lcd.o(.text)
    .text                                    0x08004d7c   Section        0  myiic.o(.text)
    .text                                    0x08004fa0   Section        0  mma8452q.o(.text)
    .text                                    0x08005178   Section        0  spi.o(.text)
    .text                                    0x08005284   Section        0  w25qxx.o(.text)
    .text                                    0x080055d4   Section        0  sdio_sdcard.o(.text)
    .text                                    0x08006d60   Section        0  delay.o(.text)
    .text                                    0x08006e18   Section        0  usart.o(.text)
    .text                                    0x08007038   Section       64  startup_stm32f40_41xxx.o(.text)
    $v0                                      0x08007038   Number         0  startup_stm32f40_41xxx.o(.text)
    .text                                    0x08007078   Section        0  misc.o(.text)
    .text                                    0x08007128   Section        0  stm32f4xx_fsmc.o(.text)
    .text                                    0x08007570   Section        0  stm32f4xx_gpio.o(.text)
    .text                                    0x0800777c   Section        0  stm32f4xx_rcc.o(.text)
    .text                                    0x08007bfc   Section        0  stm32f4xx_usart.o(.text)
    .text                                    0x08007f54   Section        0  stm32f4xx_tim.o(.text)
    TI2_Config                               0x0800859f   Thumb Code    54  stm32f4xx_tim.o(.text)
    TI1_Config                               0x08008903   Thumb Code    46  stm32f4xx_tim.o(.text)
    .text                                    0x08008930   Section        0  stm32f4xx_spi.o(.text)
    .text                                    0x08008c5c   Section        0  stm32f4xx_sdio.o(.text)
    .text                                    0x08008e14   Section        0  stm32f4xx_dma.o(.text)
    .text                                    0x08009134   Section        0  usmart.o(.text)
    .text                                    0x08009c48   Section        0  usmart_str.o(.text)
    .text                                    0x0800a068   Section        0  malloc.o(.text)
    .text                                    0x0800a22c   Section        0  diskio.o(.text)
    .text                                    0x0800a3c0   Section        0  ff.o(.text)
    sync_window                              0x0800a3c1   Thumb Code    80  ff.o(.text)
    move_window                              0x0800a411   Thumb Code    46  ff.o(.text)
    sync_fs                                  0x0800a43f   Thumb Code   176  ff.o(.text)
    remove_chain                             0x0800a6b3   Thumb Code    96  ff.o(.text)
    create_chain                             0x0800a713   Thumb Code   156  ff.o(.text)
    clmt_clust                               0x0800a7af   Thumb Code    36  ff.o(.text)
    dir_next                                 0x0800a84f   Thumb Code   228  ff.o(.text)
    dir_alloc                                0x0800a933   Thumb Code    66  ff.o(.text)
    dir_find                                 0x0800a975   Thumb Code   294  ff.o(.text)
    dir_read                                 0x0800aa9b   Thumb Code   248  ff.o(.text)
    dir_register                             0x0800ab93   Thumb Code   350  ff.o(.text)
    dir_remove                               0x0800acf1   Thumb Code    96  ff.o(.text)
    get_fileinfo                             0x0800ad51   Thumb Code   196  ff.o(.text)
    create_name                              0x0800ae15   Thumb Code   512  ff.o(.text)
    follow_path                              0x0800b015   Thumb Code   102  ff.o(.text)
    get_ldnumber                             0x0800b07b   Thumb Code    60  ff.o(.text)
    check_fs                                 0x0800b0b7   Thumb Code    86  ff.o(.text)
    find_volume                              0x0800b10d   Thumb Code   586  ff.o(.text)
    validate                                 0x0800b357   Thumb Code    38  ff.o(.text)
    putc_bfd                                 0x0800c8f9   Thumb Code    58  ff.o(.text)
    mem_cpy                                  0x0800cbb3   Thumb Code    16  ff.o(.text)
    mem_set                                  0x0800cbc3   Thumb Code    14  ff.o(.text)
    chk_chr                                  0x0800cbd1   Thumb Code    16  ff.o(.text)
    ld_clust                                 0x0800cbe1   Thumb Code    18  ff.o(.text)
    st_clust                                 0x0800cbf3   Thumb Code    16  ff.o(.text)
    gen_numname                              0x0800cc03   Thumb Code   134  ff.o(.text)
    sum_sfn                                  0x0800cc89   Thumb Code    26  ff.o(.text)
    .text                                    0x0800cca8   Section        0  exfuns.o(.text)
    .text                                    0x0800cdd0   Section        0  fattester.o(.text)
    .text                                    0x0800d3d0   Section        0  cc936.o(.text)
    .text                                    0x0800d440   Section        0  usb_core.o(.text)
    USB_OTG_CoreReset                        0x0800d441   Thumb Code    84  usb_core.o(.text)
    .text                                    0x0800db28   Section        0  usb_hcd.o(.text)
    .text                                    0x0800dbd4   Section        0  usb_hcd_int.o(.text)
    USB_OTG_USBH_handle_IncompletePeriodicXfer_ISR 0x0800dbd5   Thumb Code    70  usb_hcd_int.o(.text)
    USB_OTG_USBH_handle_Disconnect_ISR       0x0800dc1b   Thumb Code    40  usb_hcd_int.o(.text)
    USB_OTG_USBH_handle_port_ISR             0x0800dc43   Thumb Code   282  usb_hcd_int.o(.text)
    USB_OTG_USBH_handle_hc_n_Out_ISR         0x0800dd5d   Thumb Code   984  usb_hcd_int.o(.text)
    USB_OTG_USBH_handle_hc_n_In_ISR          0x0800e135   Thumb Code  1066  usb_hcd_int.o(.text)
    USB_OTG_USBH_handle_hc_ISR               0x0800e55f   Thumb Code    86  usb_hcd_int.o(.text)
    USB_OTG_USBH_handle_ptxfempty_ISR        0x0800e5b5   Thumb Code   302  usb_hcd_int.o(.text)
    USB_OTG_USBH_handle_nptxfempty_ISR       0x0800e6e3   Thumb Code   302  usb_hcd_int.o(.text)
    USB_OTG_USBH_handle_rx_qlvl_ISR          0x0800e811   Thumb Code   356  usb_hcd_int.o(.text)
    USB_OTG_USBH_handle_sof_ISR              0x0800e975   Thumb Code    38  usb_hcd_int.o(.text)
    .text                                    0x0800ea48   Section        0  usbh_core.o(.text)
    USBH_HandleEnum                          0x0800eccd   Thumb Code   406  usbh_core.o(.text)
    .text                                    0x0800efec   Section        0  usbh_hcs.o(.text)
    .text                                    0x0800f0d6   Section        0  usbh_ioreq.o(.text)
    .text                                    0x0800f294   Section        0  usbh_stdreq.o(.text)
    USBH_ParseCfgDesc                        0x0800f36f   Thumb Code   282  usbh_stdreq.o(.text)
    USBH_ParseInterfaceDesc                  0x0800f59d   Thumb Code    38  usbh_stdreq.o(.text)
    .text                                    0x0800f5cc   Section        0  usbh_msc_bot.o(.text)
    .text                                    0x0800f89c   Section        0  usbh_msc_scsi.o(.text)
    .text                                    0x0800fc34   Section        0  usb_bsp.o(.text)
    .text                                    0x0800fcdc   Section        0  usbh_usr.o(.text)
    .text                                    0x08010068   Section        0  text.o(.text)
    .text                                    0x0801029c   Section        0  bmp.o(.text)
    .text                                    0x08010910   Section        0  gif.o(.text)
    .text                                    0x080113cc   Section        0  piclib.o(.text)
    .text                                    0x080115dc   Section        0  tjpgd.o(.text)
    create_huffman_tbl                       0x080115dd   Thumb Code   202  tjpgd.o(.text)
    bitext                                   0x080116a7   Thumb Code   122  tjpgd.o(.text)
    huffext                                  0x08011721   Thumb Code   162  tjpgd.o(.text)
    block_idct                               0x080117c3   Thumb Code   478  tjpgd.o(.text)
    mcu_load                                 0x080119a1   Thumb Code   340  tjpgd.o(.text)
    mcu_output                               0x08011af5   Thumb Code   772  tjpgd.o(.text)
    alloc_pool                               0x08012399   Thumb Code    28  tjpgd.o(.text)
    .text                                    0x080123c4   Section        2  use_no_semi_2.o(.text)
    .text                                    0x080123c6   Section       72  llsdiv.o(.text)
    .text                                    0x08012410   Section        0  noretval__2printf.o(.text)
    .text                                    0x08012428   Section        0  _printf_pad.o(.text)
    .text                                    0x08012476   Section        0  _printf_str.o(.text)
    .text                                    0x080124c8   Section        0  _printf_dec.o(.text)
    .text                                    0x08012540   Section        0  _printf_hex_int.o(.text)
    .text                                    0x08012598   Section        0  __printf_flags_ss_wp.o(.text)
    .text                                    0x08012720   Section        0  strcpy.o(.text)
    .text                                    0x08012768   Section        0  strlen.o(.text)
    .text                                    0x080127a6   Section      138  rt_memcpy_v6.o(.text)
    .text                                    0x08012830   Section      128  strcmpv7m.o(.text)
    .text                                    0x080128b0   Section        0  heapauxi.o(.text)
    .text                                    0x080128b6   Section        2  use_no_semi.o(.text)
    .text                                    0x080128b8   Section      238  lludivv7m.o(.text)
    .text                                    0x080129a6   Section        0  _printf_intcommon.o(.text)
    .text                                    0x08012a58   Section        0  _printf_char.o(.text)
    .text                                    0x08012a84   Section        0  _printf_char_file.o(.text)
    .text                                    0x08012aa8   Section      100  rt_memcpy_w.o(.text)
    .text                                    0x08012b0c   Section        0  _printf_char_common.o(.text)
    _printf_input_char                       0x08012b0d   Thumb Code    10  _printf_char_common.o(.text)
    .text                                    0x08012b3c   Section        0  ferror.o(.text)
    .text                                    0x08012b44   Section        8  libspace.o(.text)
    .text                                    0x08012b4c   Section       74  sys_stackheap_outer.o(.text)
    .text                                    0x08012b96   Section        0  exit.o(.text)
    i._is_digit                              0x08012ba2   Section        0  __printf_wp.o(i._is_digit)
    x$fpl$dfixu                              0x08012bb0   Section       90  dfixu.o(x$fpl$dfixu)
    $v0                                      0x08012bb0   Number         0  dfixu.o(x$fpl$dfixu)
    x$fpl$dfltu                              0x08012c0a   Section       38  dflt_clz.o(x$fpl$dfltu)
    $v0                                      0x08012c0a   Number         0  dflt_clz.o(x$fpl$dfltu)
    x$fpl$dmul                               0x08012c30   Section      340  dmul.o(x$fpl$dmul)
    $v0                                      0x08012c30   Number         0  dmul.o(x$fpl$dmul)
    x$fpl$dnaninf                            0x08012d84   Section      156  dnaninf.o(x$fpl$dnaninf)
    $v0                                      0x08012d84   Number         0  dnaninf.o(x$fpl$dnaninf)
    x$fpl$dretinf                            0x08012e20   Section       12  dretinf.o(x$fpl$dretinf)
    $v0                                      0x08012e20   Number         0  dretinf.o(x$fpl$dretinf)
    x$fpl$fpinit                             0x08012e2c   Section       10  fpinit.o(x$fpl$fpinit)
    $v0                                      0x08012e2c   Number         0  fpinit.o(x$fpl$fpinit)
    .constdata                               0x08012e36   Section     6080  lcd.o(.constdata)
    x$fpl$usenofp                            0x08012e36   Section        0  usenofp.o(x$fpl$usenofp)
    .constdata                               0x080145f8   Section       28  stm32f4xx_fsmc.o(.constdata)
    .constdata                               0x08014614   Section       36  malloc.o(.constdata)
    .constdata                               0x08014638   Section       58  ff.o(.constdata)
    LfnOfs                                   0x08014638   Data          13  ff.o(.constdata)
    vst                                      0x08014646   Data          22  ff.o(.constdata)
    cst                                      0x0801465c   Data          22  ff.o(.constdata)
    .constdata                               0x08014674   Section      112  exfuns.o(.constdata)
    .constdata                               0x080146e4   Section    175304  cc936.o(.constdata)
    uni2oem                                  0x080146e4   Data       87172  cc936.o(.constdata)
    oem2uni                                  0x08029b68   Data       87172  cc936.o(.constdata)
    tbl_lower                                0x0803efec   Data         480  cc936.o(.constdata)
    tbl_upper                                0x0803f1cc   Data         480  cc936.o(.constdata)
    .constdata                               0x0803f3ac   Section       40  gif.o(.constdata)
    .constdata                               0x0803f3d4   Section     1216  tjpgd.o(.constdata)
    Zig                                      0x0803f3d4   Data          64  tjpgd.o(.constdata)
    Ipsf                                     0x0803f414   Data         128  tjpgd.o(.constdata)
    Clip8                                    0x0803f494   Data        1024  tjpgd.o(.constdata)
    .constdata                               0x0803f894   Section       40  _printf_hex_int.o(.constdata)
    uc_hextab                                0x0803f894   Data          20  _printf_hex_int.o(.constdata)
    lc_hextab                                0x0803f8a8   Data          20  _printf_hex_int.o(.constdata)
    .constdata                               0x0803f8bc   Section       17  __printf_flags_ss_wp.o(.constdata)
    maptable                                 0x0803f8bc   Data          17  __printf_flags_ss_wp.o(.constdata)
    .conststring                             0x0803f8d0   Section       40  usmart.o(.conststring)
    .conststring                             0x0803f8f8   Section      697  usmart_config.o(.conststring)
    .conststring                             0x0803fbb4   Section       68  exfuns.o(.conststring)
    .ARM.__AT_0x10000000                     0x10000000   Section    61440  malloc.o(.ARM.__AT_0x10000000)
    .ARM.__AT_0x1000F000                     0x1000f000   Section     3840  malloc.o(.ARM.__AT_0x1000F000)
    .data                                    0x20000000   Section        8  main.o(.data)
    .data                                    0x20000008   Section       20  system_stm32f4xx.o(.data)
    .data                                    0x2000001c   Section        1  key.o(.data)
    key_up                                   0x2000001c   Data           1  key.o(.data)
    .data                                    0x2000001e   Section        4  lcd.o(.data)
    .data                                    0x20000024   Section       24  mma8452q.o(.data)
    .data                                    0x2000003c   Section        2  w25qxx.o(.data)
    .data                                    0x20000040   Section       16  sdio_sdcard.o(.data)
    CardType                                 0x20000040   Data           1  sdio_sdcard.o(.data)
    DeviceMode                               0x20000041   Data           1  sdio_sdcard.o(.data)
    StopCondition                            0x20000042   Data           1  sdio_sdcard.o(.data)
    RCA                                      0x20000048   Data           4  sdio_sdcard.o(.data)
    .data                                    0x20000050   Section        4  delay.o(.data)
    fac_us                                   0x20000050   Data           1  delay.o(.data)
    fac_ms                                   0x20000052   Data           2  delay.o(.data)
    .data                                    0x20000054   Section        4  usart.o(.data)
    .data                                    0x20000058   Section        4  usart.o(.data)
    .data                                    0x2000005c   Section       16  stm32f4xx_rcc.o(.data)
    APBAHBPrescTable                         0x2000005c   Data          16  stm32f4xx_rcc.o(.data)
    .data                                    0x2000006c   Section       28  usmart.o(.data)
    .data                                    0x20000088   Section      216  usmart_config.o(.data)
    .data                                    0x20000160   Section      244  usmart_config.o(.data)
    .data                                    0x20000254   Section       36  malloc.o(.data)
    .data                                    0x20000278   Section        2  diskio.o(.data)
    .data                                    0x2000027a   Section        2  ff.o(.data)
    Fsid                                     0x2000027a   Data           2  ff.o(.data)
    .data                                    0x2000027c   Section       12  exfuns.o(.data)
    .data                                    0x20000288   Section        4  exfuns.o(.data)
    .data                                    0x2000028c   Section        4  exfuns.o(.data)
    .data                                    0x20000290   Section       12  usbh_core.o(.data)
    .data                                    0x2000029c   Section        4  usbh_core.o(.data)
    .data                                    0x200002a0   Section        2  usbh_core.o(.data)
    timeout                                  0x200002a0   Data           2  usbh_core.o(.data)
    .data                                    0x200002a2   Section        4  usbh_stdreq.o(.data)
    prev_itf                                 0x200002a2   Data           1  usbh_stdreq.o(.data)
    prev_ep_size                             0x200002a4   Data           2  usbh_stdreq.o(.data)
    .data                                    0x200002a8   Section       20  usbh_msc_bot.o(.data)
    error_direction                          0x200002a8   Data           1  usbh_msc_bot.o(.data)
    remainingDataLength                      0x200002ac   Data           4  usbh_msc_bot.o(.data)
    datapointer                              0x200002b0   Data           4  usbh_msc_bot.o(.data)
    datapointer_prev                         0x200002b4   Data           4  usbh_msc_bot.o(.data)
    BOTStallErrorCount                       0x200002b8   Data           4  usbh_msc_bot.o(.data)
    .data                                    0x200002bc   Section        2  usbh_msc_core.o(.data)
    maxLunExceed                             0x200002bd   Data           1  usbh_msc_core.o(.data)
    .data                                    0x200002be   Section        1  usbh_msc_scsi.o(.data)
    status                                   0x200002be   Data           1  usbh_msc_scsi.o(.data)
    .data                                    0x200002bf   Section        1  usbh_usr.o(.data)
    AppState                                 0x200002bf   Data           1  usbh_usr.o(.data)
    .data                                    0x200002c0   Section        1  gif.o(.data)
    .data                                    0x200002c4   Section       12  tjpgd.o(.data)
    .bss                                     0x200002d0   Section     2004  main.o(.bss)
    .bss                                     0x20000aa4   Section      132  main.o(.bss)
    .bss                                     0x20000b28   Section       14  lcd.o(.bss)
    .bss                                     0x20000b36   Section     4096  w25qxx.o(.bss)
    .bss                                     0x20001b38   Section      704  sdio_sdcard.o(.bss)
    CSD_Tab                                  0x20001b7c   Data          16  sdio_sdcard.o(.bss)
    CID_Tab                                  0x20001b8c   Data          16  sdio_sdcard.o(.bss)
    .bss                                     0x20001df8   Section      400  usart.o(.bss)
    .bss                                     0x20001fa0   Section    102400  malloc.o(.bss)
    .bss                                     0x2001afa0   Section     6400  malloc.o(.bss)
    .bss                                     0x2001c8a0   Section       12  ff.o(.bss)
    FatFs                                    0x2001c8a0   Data          12  ff.o(.bss)
    .bss                                     0x2001c8ac   Section       12  exfuns.o(.bss)
    .bss                                     0x2001c8b8   Section       32  exfuns.o(.bss)
    .bss                                     0x2001c8d8   Section       36  exfuns.o(.bss)
    .bss                                     0x2001c8fc   Section      512  usbh_stdreq.o(.bss)
    .bss                                     0x2001cafc   Section       64  usbh_msc_bot.o(.bss)
    .bss                                     0x2001cb3c   Section       74  usbh_msc_core.o(.bss)
    .bss                                     0x2001cb88   Section      528  usbh_msc_scsi.o(.bss)
    .bss                                     0x2001cd98   Section       33  fontupd.o(.bss)
    .bss                                     0x2001cdbc   Section       60  piclib.o(.bss)
    .bss                                     0x2001cdf8   Section       96  libspace.o(.bss)
    HEAP                                     0x2001ce58   Section      512  startup_stm32f40_41xxx.o(HEAP)
    Heap_Mem                                 0x2001ce58   Data         512  startup_stm32f40_41xxx.o(HEAP)
    STACK                                    0x2001d058   Section     1024  startup_stm32f40_41xxx.o(STACK)
    Stack_Mem                                0x2001d058   Data        1024  startup_stm32f40_41xxx.o(STACK)
    __initial_sp                             0x2001d458   Data           0  startup_stm32f40_41xxx.o(STACK)
    .ARM.__AT_0x68000000                     0x68000000   Section    983040  malloc.o(.ARM.__AT_0x68000000)
    .ARM.__AT_0x680F0000                     0x680f0000   Section    61440  malloc.o(.ARM.__AT_0x680F0000)

    Global Symbols

    Symbol Name                              Value     Ov Type        Size  Object(Section)

    BuildAttributes$$THM_ISAv4$E$P$D$K$B$S$7EM$VFPi3$EXTD16$VFPS$VFMA$PE$A:L22UL41UL21$X:L11$S22US41US21$IEEE1$IW$USESV6$~STKCKD$USESV7$~SHL$OTIME$ROPI$IEEEX$EBA8$UX$STANDARDLIB$REQ8$PRES8$EABIv2 0x00000000   Number         0  anon$$obj.o ABSOLUTE
    __ARM_use_no_argv                        0x00000000   Number         0  main.o ABSOLUTE
    _printf_flags                            0x00000000   Number         0  printf_stubs.o ABSOLUTE
    _printf_return_value                     0x00000000   Number         0  printf_stubs.o ABSOLUTE
    _printf_sizespec                         0x00000000   Number         0  printf_stubs.o ABSOLUTE
    _printf_widthprec                        0x00000000   Number         0  printf_stubs.o ABSOLUTE
    __ARM_exceptions_init                     - Undefined Weak Reference
    __alloca_initialize                       - Undefined Weak Reference
    __arm_preinit_                            - Undefined Weak Reference
    __cpp_initialize__aeabi_                  - Undefined Weak Reference
    __cxa_finalize                            - Undefined Weak Reference
    __rt_locale                               - Undefined Weak Reference
    __sigvec_lookup                           - Undefined Weak Reference
    _atexit_init                              - Undefined Weak Reference
    _call_atexit_fns                          - Undefined Weak Reference
    _clock_init                               - Undefined Weak Reference
    _fp_trap_init                             - Undefined Weak Reference
    _fp_trap_shutdown                         - Undefined Weak Reference
    _get_lc_collate                           - Undefined Weak Reference
    _get_lc_ctype                             - Undefined Weak Reference
    _get_lc_monetary                          - Undefined Weak Reference
    _get_lc_numeric                           - Undefined Weak Reference
    _get_lc_time                              - Undefined Weak Reference
    _getenv_init                              - Undefined Weak Reference
    _handle_redirection                       - Undefined Weak Reference
    _init_alloc                               - Undefined Weak Reference
    _init_user_alloc                          - Undefined Weak Reference
    _initio                                   - Undefined Weak Reference
    _mutex_acquire                            - Undefined Weak Reference
    _mutex_release                            - Undefined Weak Reference
    _printf_mbtowc                            - Undefined Weak Reference
    _printf_truncate_signed                   - Undefined Weak Reference
    _printf_truncate_unsigned                 - Undefined Weak Reference
    _rand_init                                - Undefined Weak Reference
    _signal_finish                            - Undefined Weak Reference
    _signal_init                              - Undefined Weak Reference
    _terminate_alloc                          - Undefined Weak Reference
    _terminate_user_alloc                     - Undefined Weak Reference
    _terminateio                              - Undefined Weak Reference
    __Vectors_Size                           0x00000188   Number         0  startup_stm32f40_41xxx.o ABSOLUTE
    __Vectors                                0x08000000   Data           4  startup_stm32f40_41xxx.o(RESET)
    __Vectors_End                            0x08000188   Data           0  startup_stm32f40_41xxx.o(RESET)
    __main                                   0x08000189   Thumb Code     8  __main.o(!!!main)
    __scatterload                            0x08000191   Thumb Code     0  __scatter.o(!!!scatter)
    __scatterload_rt2                        0x08000191   Thumb Code    44  __scatter.o(!!!scatter)
    __scatterload_rt2_thumb_only             0x08000191   Thumb Code     0  __scatter.o(!!!scatter)
    __scatterload_null                       0x0800019f   Thumb Code     0  __scatter.o(!!!scatter)
    __decompress                             0x080001c5   Thumb Code    90  __dczerorl2.o(!!dczerorl2)
    __decompress1                            0x080001c5   Thumb Code     0  __dczerorl2.o(!!dczerorl2)
    __scatterload_zeroinit                   0x08000221   Thumb Code    28  __scatter_zi.o(!!handler_zi)
    _printf_d                                0x0800023d   Thumb Code     0  _printf_d.o(.ARM.Collect$$_printf_percent$$00000009)
    _printf_percent                          0x0800023d   Thumb Code     0  _printf_percent.o(.ARM.Collect$$_printf_percent$$00000000)
    _printf_u                                0x08000243   Thumb Code     0  _printf_u.o(.ARM.Collect$$_printf_percent$$0000000A)
    _printf_x                                0x08000249   Thumb Code     0  _printf_x.o(.ARM.Collect$$_printf_percent$$0000000C)
    _printf_c                                0x0800024f   Thumb Code     0  _printf_c.o(.ARM.Collect$$_printf_percent$$00000013)
    _printf_s                                0x08000255   Thumb Code     0  _printf_s.o(.ARM.Collect$$_printf_percent$$00000014)
    _printf_percent_end                      0x0800025b   Thumb Code     0  _printf_percent_end.o(.ARM.Collect$$_printf_percent$$00000017)
    __rt_lib_init                            0x0800025f   Thumb Code     0  libinit.o(.ARM.Collect$$libinit$$00000000)
    __rt_lib_init_fp_1                       0x08000261   Thumb Code     0  libinit2.o(.ARM.Collect$$libinit$$00000001)
    __rt_lib_init_alloca_1                   0x08000265   Thumb Code     0  libinit2.o(.ARM.Collect$$libinit$$0000002E)
    __rt_lib_init_argv_1                     0x08000265   Thumb Code     0  libinit2.o(.ARM.Collect$$libinit$$0000002C)
    __rt_lib_init_atexit_1                   0x08000265   Thumb Code     0  libinit2.o(.ARM.Collect$$libinit$$0000001B)
    __rt_lib_init_clock_1                    0x08000265   Thumb Code     0  libinit2.o(.ARM.Collect$$libinit$$00000021)
    __rt_lib_init_cpp_1                      0x08000265   Thumb Code     0  libinit2.o(.ARM.Collect$$libinit$$00000032)
    __rt_lib_init_exceptions_1               0x08000265   Thumb Code     0  libinit2.o(.ARM.Collect$$libinit$$00000030)
    __rt_lib_init_fp_trap_1                  0x08000265   Thumb Code     0  libinit2.o(.ARM.Collect$$libinit$$0000001F)
    __rt_lib_init_getenv_1                   0x08000265   Thumb Code     0  libinit2.o(.ARM.Collect$$libinit$$00000023)
    __rt_lib_init_heap_1                     0x08000265   Thumb Code     0  libinit2.o(.ARM.Collect$$libinit$$0000000A)
    __rt_lib_init_lc_collate_1               0x08000265   Thumb Code     0  libinit2.o(.ARM.Collect$$libinit$$00000011)
    __rt_lib_init_lc_ctype_1                 0x08000265   Thumb Code     0  libinit2.o(.ARM.Collect$$libinit$$00000013)
    __rt_lib_init_lc_monetary_1              0x08000265   Thumb Code     0  libinit2.o(.ARM.Collect$$libinit$$00000015)
    __rt_lib_init_lc_numeric_1               0x08000265   Thumb Code     0  libinit2.o(.ARM.Collect$$libinit$$00000017)
    __rt_lib_init_lc_time_1                  0x08000265   Thumb Code     0  libinit2.o(.ARM.Collect$$libinit$$00000019)
    __rt_lib_init_preinit_1                  0x08000265   Thumb Code     0  libinit2.o(.ARM.Collect$$libinit$$00000004)
    __rt_lib_init_rand_1                     0x08000265   Thumb Code     0  libinit2.o(.ARM.Collect$$libinit$$0000000E)
    __rt_lib_init_return                     0x08000265   Thumb Code     0  libinit2.o(.ARM.Collect$$libinit$$00000033)
    __rt_lib_init_signal_1                   0x08000265   Thumb Code     0  libinit2.o(.ARM.Collect$$libinit$$0000001D)
    __rt_lib_init_stdio_1                    0x08000265   Thumb Code     0  libinit2.o(.ARM.Collect$$libinit$$00000025)
    __rt_lib_init_user_alloc_1               0x08000265   Thumb Code     0  libinit2.o(.ARM.Collect$$libinit$$0000000C)
    __rt_lib_shutdown                        0x08000267   Thumb Code     0  libshutdown.o(.ARM.Collect$$libshutdown$$00000000)
    __rt_lib_shutdown_fp_trap_1              0x08000269   Thumb Code     0  libshutdown2.o(.ARM.Collect$$libshutdown$$00000006)
    __rt_lib_shutdown_heap_1                 0x08000269   Thumb Code     0  libshutdown2.o(.ARM.Collect$$libshutdown$$0000000E)
    __rt_lib_shutdown_return                 0x08000269   Thumb Code     0  libshutdown2.o(.ARM.Collect$$libshutdown$$0000000F)
    __rt_lib_shutdown_signal_1               0x08000269   Thumb Code     0  libshutdown2.o(.ARM.Collect$$libshutdown$$00000009)
    __rt_lib_shutdown_stdio_1                0x08000269   Thumb Code     0  libshutdown2.o(.ARM.Collect$$libshutdown$$00000003)
    __rt_lib_shutdown_user_alloc_1           0x08000269   Thumb Code     0  libshutdown2.o(.ARM.Collect$$libshutdown$$0000000B)
    __rt_entry                               0x0800026b   Thumb Code     0  __rtentry.o(.ARM.Collect$$rtentry$$00000000)
    __rt_entry_presh_1                       0x0800026b   Thumb Code     0  __rtentry2.o(.ARM.Collect$$rtentry$$00000002)
    __rt_entry_sh                            0x0800026b   Thumb Code     0  __rtentry4.o(.ARM.Collect$$rtentry$$00000004)
    __rt_entry_li                            0x08000271   Thumb Code     0  __rtentry2.o(.ARM.Collect$$rtentry$$0000000A)
    __rt_entry_postsh_1                      0x08000271   Thumb Code     0  __rtentry2.o(.ARM.Collect$$rtentry$$00000009)
    __rt_entry_main                          0x08000275   Thumb Code     0  __rtentry2.o(.ARM.Collect$$rtentry$$0000000D)
    __rt_entry_postli_1                      0x08000275   Thumb Code     0  __rtentry2.o(.ARM.Collect$$rtentry$$0000000C)
    __rt_exit                                0x0800027d   Thumb Code     0  rtexit.o(.ARM.Collect$$rtexit$$00000000)
    __rt_exit_ls                             0x0800027f   Thumb Code     0  rtexit2.o(.ARM.Collect$$rtexit$$00000003)
    __rt_exit_prels_1                        0x0800027f   Thumb Code     0  rtexit2.o(.ARM.Collect$$rtexit$$00000002)
    __rt_exit_exit                           0x08000283   Thumb Code     0  rtexit2.o(.ARM.Collect$$rtexit$$00000004)
    WFI_SET                                  0x08000289   Thumb Code     2  sys.o(.emb_text)
    INTX_DISABLE                             0x0800028b   Thumb Code     4  sys.o(.emb_text)
    INTX_ENABLE                              0x0800028f   Thumb Code     4  sys.o(.emb_text)
    MSR_MSP                                  0x08000293   Thumb Code     6  sys.o(.emb_text)
    USH_User_App                             0x08000299   Thumb Code   256  main.o(.text)
    main                                     0x08000399   Thumb Code   160  main.o(.text)
    NMI_Handler                              0x080004ed   Thumb Code     2  stm32f4xx_it.o(.text)
    HardFault_Handler                        0x080004ef   Thumb Code     2  stm32f4xx_it.o(.text)
    MemManage_Handler                        0x080004f1   Thumb Code     2  stm32f4xx_it.o(.text)
    BusFault_Handler                         0x080004f3   Thumb Code     2  stm32f4xx_it.o(.text)
    UsageFault_Handler                       0x080004f5   Thumb Code     2  stm32f4xx_it.o(.text)
    SVC_Handler                              0x080004f7   Thumb Code     2  stm32f4xx_it.o(.text)
    DebugMon_Handler                         0x080004f9   Thumb Code     2  stm32f4xx_it.o(.text)
    PendSV_Handler                           0x080004fb   Thumb Code     2  stm32f4xx_it.o(.text)
    SysTick_Handler                          0x080004fd   Thumb Code     2  stm32f4xx_it.o(.text)
    SystemInit                               0x080005a3   Thumb Code    74  system_stm32f4xx.o(.text)
    SystemCoreClockUpdate                    0x080005ed   Thumb Code   108  system_stm32f4xx.o(.text)
    LED_Init                                 0x0800067d   Thumb Code    58  led.o(.text)
    KEY_Init                                 0x080006bd   Thumb Code    58  key.o(.text)
    KEY_Scan                                 0x080006f7   Thumb Code   190  key.o(.text)
    LCD_WR_REG                               0x080007c1   Thumb Code    24  lcd.o(.text)
    LCD_WR_DATA                              0x080007d9   Thumb Code    24  lcd.o(.text)
    LCD_RD_DATA                              0x080007f1   Thumb Code    20  lcd.o(.text)
    LCD_WriteReg                             0x08000805   Thumb Code    12  lcd.o(.text)
    LCD_ReadReg                              0x08000811   Thumb Code    18  lcd.o(.text)
    LCD_WriteRAM_Prepare                     0x08000823   Thumb Code    14  lcd.o(.text)
    LCD_WriteRAM                             0x08000831   Thumb Code    10  lcd.o(.text)
    LCD_BGR2RGB                              0x0800083b   Thumb Code    18  lcd.o(.text)
    opt_delay                                0x0800084d   Thumb Code     8  lcd.o(.text)
    LCD_SetCursor                            0x08000855   Thumb Code   322  lcd.o(.text)
    LCD_ReadPoint                            0x08000997   Thumb Code   248  lcd.o(.text)
    LCD_DisplayOn                            0x08000a8f   Thumb Code    62  lcd.o(.text)
    LCD_DisplayOff                           0x08000acd   Thumb Code    60  lcd.o(.text)
    LCD_Scan_Dir                             0x08000b09   Thumb Code   516  lcd.o(.text)
    LCD_DrawPoint                            0x08000d0d   Thumb Code    24  lcd.o(.text)
    LCD_Fast_DrawPoint                       0x08000d25   Thumb Code   264  lcd.o(.text)
    LCD_SSD_BackLightSet                     0x08000e2d   Thumb Code    70  lcd.o(.text)
    LCD_Display_Dir                          0x08000e73   Thumb Code   302  lcd.o(.text)
    LCD_Set_Window                           0x08000fa1   Thumb Code   492  lcd.o(.text)
    LCD_Clear                                0x0800118d   Thumb Code   104  lcd.o(.text)
    LCD_Init                                 0x080011f5   Thumb Code 14090  lcd.o(.text)
    LCD_Fill                                 0x080048ff   Thumb Code   134  lcd.o(.text)
    LCD_Color_Fill                           0x08004985   Thumb Code    86  lcd.o(.text)
    LCD_DrawLine                             0x080049db   Thumb Code   150  lcd.o(.text)
    LCD_DrawRectangle                        0x08004a71   Thumb Code    54  lcd.o(.text)
    LCD_Draw_Circle                          0x08004aa7   Thumb Code   176  lcd.o(.text)
    LCD_ShowChar                             0x08004b57   Thumb Code   184  lcd.o(.text)
    LCD_Pow                                  0x08004c0f   Thumb Code    16  lcd.o(.text)
    LCD_ShowNum                              0x08004c1f   Thumb Code   118  lcd.o(.text)
    LCD_ShowxNum                             0x08004c95   Thumb Code   150  lcd.o(.text)
    LCD_ShowString                           0x08004d2b   Thumb Code    82  lcd.o(.text)
    IIC_Init                                 0x08004d7d   Thumb Code    58  myiic.o(.text)
    IIC_Start                                0x08004db7   Thumb Code    56  myiic.o(.text)
    IIC_Stop                                 0x08004def   Thumb Code    58  myiic.o(.text)
    IIC_Wait_Ack                             0x08004e29   Thumb Code    74  myiic.o(.text)
    IIC_Ack                                  0x08004e73   Thumb Code    56  myiic.o(.text)
    IIC_NAck                                 0x08004eab   Thumb Code    56  myiic.o(.text)
    IIC_Send_Byte                            0x08004ee3   Thumb Code    86  myiic.o(.text)
    IIC_Read_Byte                            0x08004f39   Thumb Code    96  myiic.o(.text)
    MMA_Write_Byte                           0x08004fa1   Thumb Code    60  mma8452q.o(.text)
    MMA_Init                                 0x08004fdd   Thumb Code    50  mma8452q.o(.text)
    MMA_Read_Len                             0x0800500f   Thumb Code    92  mma8452q.o(.text)
    MMA_Get_Accelerometer                    0x0800506b   Thumb Code    50  mma8452q.o(.text)
    MMA_Read_Byte                            0x0800509d   Thumb Code    58  mma8452q.o(.text)
    MMA_Write_Len                            0x080050d7   Thumb Code    74  mma8452q.o(.text)
    Get_x                                    0x08005121   Thumb Code    28  mma8452q.o(.text)
    Get_y                                    0x0800513d   Thumb Code    28  mma8452q.o(.text)
    Get_z                                    0x08005159   Thumb Code    28  mma8452q.o(.text)
    SPI1_ReadWriteByte                       0x08005179   Thumb Code    48  spi.o(.text)
    SPI1_Init                                0x080051a9   Thumb Code   186  spi.o(.text)
    SPI1_SetSpeed                            0x08005263   Thumb Code    24  spi.o(.text)
    W25QXX_ReadID                            0x08005285   Thumb Code    62  w25qxx.o(.text)
    W25QXX_Init                              0x080052c3   Thumb Code   102  w25qxx.o(.text)
    W25QXX_ReadSR                            0x08005329   Thumb Code    32  w25qxx.o(.text)
    W25QXX_Write_SR                          0x08005349   Thumb Code    34  w25qxx.o(.text)
    W25QXX_Write_Enable                      0x0800536b   Thumb Code    26  w25qxx.o(.text)
    W25QXX_Write_Disable                     0x08005385   Thumb Code    26  w25qxx.o(.text)
    W25QXX_Read                              0x0800539f   Thumb Code    76  w25qxx.o(.text)
    W25QXX_Wait_Busy                         0x080053eb   Thumb Code    12  w25qxx.o(.text)
    W25QXX_Write_Page                        0x080053f7   Thumb Code    80  w25qxx.o(.text)
    W25QXX_Write_NoCheck                     0x08005447   Thumb Code    60  w25qxx.o(.text)
    W25QXX_Erase_Sector                      0x08005483   Thumb Code    62  w25qxx.o(.text)
    W25QXX_Write                             0x080054c1   Thumb Code   150  w25qxx.o(.text)
    W25QXX_Erase_Chip                        0x08005557   Thumb Code    38  w25qxx.o(.text)
    W25QXX_PowerDown                         0x0800557d   Thumb Code    34  w25qxx.o(.text)
    W25QXX_WAKEUP                            0x0800559f   Thumb Code    34  w25qxx.o(.text)
    SDIO_Register_Deinit                     0x080055d5   Thumb Code    46  sdio_sdcard.o(.text)
    SD_SetDeviceMode                         0x08005603   Thumb Code    20  sdio_sdcard.o(.text)
    SDIO_Clock_Set                           0x08005617   Thumb Code    16  sdio_sdcard.o(.text)
    CmdResp1Error                            0x08005627   Thumb Code    86  sdio_sdcard.o(.text)
    FindSCR                                  0x0800567d   Thumb Code   314  sdio_sdcard.o(.text)
    SDEnWideBus                              0x080057b7   Thumb Code   128  sdio_sdcard.o(.text)
    SD_EnableWideBusOperation                0x08005837   Thumb Code    68  sdio_sdcard.o(.text)
    SD_SelectDeselect                        0x0800587b   Thumb Code    38  sdio_sdcard.o(.text)
    SD_GetCardInfo                           0x080058a1   Thumb Code   546  sdio_sdcard.o(.text)
    CmdResp2Error                            0x08005ac3   Thumb Code    66  sdio_sdcard.o(.text)
    CmdResp6Error                            0x08005b05   Thumb Code   118  sdio_sdcard.o(.text)
    SD_InitializeCards                       0x08005b7b   Thumb Code   286  sdio_sdcard.o(.text)
    CmdResp3Error                            0x08005c99   Thumb Code    42  sdio_sdcard.o(.text)
    CmdResp7Error                            0x08005cc3   Thumb Code    54  sdio_sdcard.o(.text)
    CmdError                                 0x08005cf9   Thumb Code    42  sdio_sdcard.o(.text)
    SD_PowerON                               0x08005d23   Thumb Code   416  sdio_sdcard.o(.text)
    SD_Init                                  0x08005ec3   Thumb Code   264  sdio_sdcard.o(.text)
    SD_PowerOFF                              0x08005fcb   Thumb Code    12  sdio_sdcard.o(.text)
    SD_DMA_Config                            0x08005fd7   Thumb Code   114  sdio_sdcard.o(.text)
    convert_from_bytes_to_power_of_two       0x08006049   Thumb Code    18  sdio_sdcard.o(.text)
    SD_ReadBlock                             0x0800605b   Thumb Code   534  sdio_sdcard.o(.text)
    SD_ReadMultiBlocks                       0x08006271   Thumb Code   602  sdio_sdcard.o(.text)
    IsCardProgramming                        0x080064cb   Thumb Code   138  sdio_sdcard.o(.text)
    SD_WriteBlock                            0x08006555   Thumb Code   734  sdio_sdcard.o(.text)
    SD_WriteMultiBlocks                      0x08006833   Thumb Code   760  sdio_sdcard.o(.text)
    SD_ProcessIRQSrc                         0x08006b2b   Thumb Code   228  sdio_sdcard.o(.text)
    SDIO_IRQHandler                          0x08006c0f   Thumb Code     2  sdio_sdcard.o(.text)
    SD_SendStatus                            0x08006c11   Thumb Code    62  sdio_sdcard.o(.text)
    SD_GetState                              0x08006c4f   Thumb Code    26  sdio_sdcard.o(.text)
    SD_ReadDisk                              0x08006c69   Thumb Code   120  sdio_sdcard.o(.text)
    SD_WriteDisk                             0x08006ce1   Thumb Code   112  sdio_sdcard.o(.text)
    delay_init                               0x08006d61   Thumb Code    38  delay.o(.text)
    delay_us                                 0x08006d87   Thumb Code    46  delay.o(.text)
    delay_xms                                0x08006db5   Thumb Code    46  delay.o(.text)
    delay_ms                                 0x08006de3   Thumb Code    50  delay.o(.text)
    _sys_exit                                0x08006e19   Thumb Code     2  usart.o(.text)
    fputc                                    0x08006e1b   Thumb Code    14  usart.o(.text)
    uart_init                                0x08006e29   Thumb Code   164  usart.o(.text)
    USART1_IRQHandler                        0x08006ecd   Thumb Code    88  usart.o(.text)
    uart6_init                               0x08006f25   Thumb Code   160  usart.o(.text)
    USART6_IRQHandler                        0x08006fc5   Thumb Code    90  usart.o(.text)
    Reset_Handler                            0x08007039   Thumb Code     8  startup_stm32f40_41xxx.o(.text)
    ADC_IRQHandler                           0x08007053   Thumb Code     0  startup_stm32f40_41xxx.o(.text)
    CAN1_RX0_IRQHandler                      0x08007053   Thumb Code     0  startup_stm32f40_41xxx.o(.text)
    CAN1_RX1_IRQHandler                      0x08007053   Thumb Code     0  startup_stm32f40_41xxx.o(.text)
    CAN1_SCE_IRQHandler                      0x08007053   Thumb Code     0  startup_stm32f40_41xxx.o(.text)
    CAN1_TX_IRQHandler                       0x08007053   Thumb Code     0  startup_stm32f40_41xxx.o(.text)
    CAN2_RX0_IRQHandler                      0x08007053   Thumb Code     0  startup_stm32f40_41xxx.o(.text)
    CAN2_RX1_IRQHandler                      0x08007053   Thumb Code     0  startup_stm32f40_41xxx.o(.text)
    CAN2_SCE_IRQHandler                      0x08007053   Thumb Code     0  startup_stm32f40_41xxx.o(.text)
    CAN2_TX_IRQHandler                       0x08007053   Thumb Code     0  startup_stm32f40_41xxx.o(.text)
    CRYP_IRQHandler                          0x08007053   Thumb Code     0  startup_stm32f40_41xxx.o(.text)
    DCMI_IRQHandler                          0x08007053   Thumb Code     0  startup_stm32f40_41xxx.o(.text)
    DMA1_Stream0_IRQHandler                  0x08007053   Thumb Code     0  startup_stm32f40_41xxx.o(.text)
    DMA1_Stream1_IRQHandler                  0x08007053   Thumb Code     0  startup_stm32f40_41xxx.o(.text)
    DMA1_Stream2_IRQHandler                  0x08007053   Thumb Code     0  startup_stm32f40_41xxx.o(.text)
    DMA1_Stream3_IRQHandler                  0x08007053   Thumb Code     0  startup_stm32f40_41xxx.o(.text)
    DMA1_Stream4_IRQHandler                  0x08007053   Thumb Code     0  startup_stm32f40_41xxx.o(.text)
    DMA1_Stream5_IRQHandler                  0x08007053   Thumb Code     0  startup_stm32f40_41xxx.o(.text)
    DMA1_Stream6_IRQHandler                  0x08007053   Thumb Code     0  startup_stm32f40_41xxx.o(.text)
    DMA1_Stream7_IRQHandler                  0x08007053   Thumb Code     0  startup_stm32f40_41xxx.o(.text)
    DMA2_Stream0_IRQHandler                  0x08007053   Thumb Code     0  startup_stm32f40_41xxx.o(.text)
    DMA2_Stream1_IRQHandler                  0x08007053   Thumb Code     0  startup_stm32f40_41xxx.o(.text)
    DMA2_Stream2_IRQHandler                  0x08007053   Thumb Code     0  startup_stm32f40_41xxx.o(.text)
    DMA2_Stream3_IRQHandler                  0x08007053   Thumb Code     0  startup_stm32f40_41xxx.o(.text)
    DMA2_Stream4_IRQHandler                  0x08007053   Thumb Code     0  startup_stm32f40_41xxx.o(.text)
    DMA2_Stream5_IRQHandler                  0x08007053   Thumb Code     0  startup_stm32f40_41xxx.o(.text)
    DMA2_Stream6_IRQHandler                  0x08007053   Thumb Code     0  startup_stm32f40_41xxx.o(.text)
    DMA2_Stream7_IRQHandler                  0x08007053   Thumb Code     0  startup_stm32f40_41xxx.o(.text)
    ETH_IRQHandler                           0x08007053   Thumb Code     0  startup_stm32f40_41xxx.o(.text)
    ETH_WKUP_IRQHandler                      0x08007053   Thumb Code     0  startup_stm32f40_41xxx.o(.text)
    EXTI0_IRQHandler                         0x08007053   Thumb Code     0  startup_stm32f40_41xxx.o(.text)
    EXTI15_10_IRQHandler                     0x08007053   Thumb Code     0  startup_stm32f40_41xxx.o(.text)
    EXTI1_IRQHandler                         0x08007053   Thumb Code     0  startup_stm32f40_41xxx.o(.text)
    EXTI2_IRQHandler                         0x08007053   Thumb Code     0  startup_stm32f40_41xxx.o(.text)
    EXTI3_IRQHandler                         0x08007053   Thumb Code     0  startup_stm32f40_41xxx.o(.text)
    EXTI4_IRQHandler                         0x08007053   Thumb Code     0  startup_stm32f40_41xxx.o(.text)
    EXTI9_5_IRQHandler                       0x08007053   Thumb Code     0  startup_stm32f40_41xxx.o(.text)
    FLASH_IRQHandler                         0x08007053   Thumb Code     0  startup_stm32f40_41xxx.o(.text)
    FPU_IRQHandler                           0x08007053   Thumb Code     0  startup_stm32f40_41xxx.o(.text)
    FSMC_IRQHandler                          0x08007053   Thumb Code     0  startup_stm32f40_41xxx.o(.text)
    HASH_RNG_IRQHandler                      0x08007053   Thumb Code     0  startup_stm32f40_41xxx.o(.text)
    I2C1_ER_IRQHandler                       0x08007053   Thumb Code     0  startup_stm32f40_41xxx.o(.text)
    I2C1_EV_IRQHandler                       0x08007053   Thumb Code     0  startup_stm32f40_41xxx.o(.text)
    I2C2_ER_IRQHandler                       0x08007053   Thumb Code     0  startup_stm32f40_41xxx.o(.text)
    I2C2_EV_IRQHandler                       0x08007053   Thumb Code     0  startup_stm32f40_41xxx.o(.text)
    I2C3_ER_IRQHandler                       0x08007053   Thumb Code     0  startup_stm32f40_41xxx.o(.text)
    I2C3_EV_IRQHandler                       0x08007053   Thumb Code     0  startup_stm32f40_41xxx.o(.text)
    OTG_FS_WKUP_IRQHandler                   0x08007053   Thumb Code     0  startup_stm32f40_41xxx.o(.text)
    OTG_HS_EP1_IN_IRQHandler                 0x08007053   Thumb Code     0  startup_stm32f40_41xxx.o(.text)
    OTG_HS_EP1_OUT_IRQHandler                0x08007053   Thumb Code     0  startup_stm32f40_41xxx.o(.text)
    OTG_HS_IRQHandler                        0x08007053   Thumb Code     0  startup_stm32f40_41xxx.o(.text)
    OTG_HS_WKUP_IRQHandler                   0x08007053   Thumb Code     0  startup_stm32f40_41xxx.o(.text)
    PVD_IRQHandler                           0x08007053   Thumb Code     0  startup_stm32f40_41xxx.o(.text)
    RCC_IRQHandler                           0x08007053   Thumb Code     0  startup_stm32f40_41xxx.o(.text)
    RTC_Alarm_IRQHandler                     0x08007053   Thumb Code     0  startup_stm32f40_41xxx.o(.text)
    RTC_WKUP_IRQHandler                      0x08007053   Thumb Code     0  startup_stm32f40_41xxx.o(.text)
    SPI1_IRQHandler                          0x08007053   Thumb Code     0  startup_stm32f40_41xxx.o(.text)
    SPI2_IRQHandler                          0x08007053   Thumb Code     0  startup_stm32f40_41xxx.o(.text)
    SPI3_IRQHandler                          0x08007053   Thumb Code     0  startup_stm32f40_41xxx.o(.text)
    TAMP_STAMP_IRQHandler                    0x08007053   Thumb Code     0  startup_stm32f40_41xxx.o(.text)
    TIM1_BRK_TIM9_IRQHandler                 0x08007053   Thumb Code     0  startup_stm32f40_41xxx.o(.text)
    TIM1_CC_IRQHandler                       0x08007053   Thumb Code     0  startup_stm32f40_41xxx.o(.text)
    TIM1_TRG_COM_TIM11_IRQHandler            0x08007053   Thumb Code     0  startup_stm32f40_41xxx.o(.text)
    TIM1_UP_TIM10_IRQHandler                 0x08007053   Thumb Code     0  startup_stm32f40_41xxx.o(.text)
    TIM2_IRQHandler                          0x08007053   Thumb Code     0  startup_stm32f40_41xxx.o(.text)
    TIM3_IRQHandler                          0x08007053   Thumb Code     0  startup_stm32f40_41xxx.o(.text)
    TIM5_IRQHandler                          0x08007053   Thumb Code     0  startup_stm32f40_41xxx.o(.text)
    TIM6_DAC_IRQHandler                      0x08007053   Thumb Code     0  startup_stm32f40_41xxx.o(.text)
    TIM7_IRQHandler                          0x08007053   Thumb Code     0  startup_stm32f40_41xxx.o(.text)
    TIM8_BRK_TIM12_IRQHandler                0x08007053   Thumb Code     0  startup_stm32f40_41xxx.o(.text)
    TIM8_CC_IRQHandler                       0x08007053   Thumb Code     0  startup_stm32f40_41xxx.o(.text)
    TIM8_TRG_COM_TIM14_IRQHandler            0x08007053   Thumb Code     0  startup_stm32f40_41xxx.o(.text)
    TIM8_UP_TIM13_IRQHandler                 0x08007053   Thumb Code     0  startup_stm32f40_41xxx.o(.text)
    UART4_IRQHandler                         0x08007053   Thumb Code     0  startup_stm32f40_41xxx.o(.text)
    UART5_IRQHandler                         0x08007053   Thumb Code     0  startup_stm32f40_41xxx.o(.text)
    USART2_IRQHandler                        0x08007053   Thumb Code     0  startup_stm32f40_41xxx.o(.text)
    USART3_IRQHandler                        0x08007053   Thumb Code     0  startup_stm32f40_41xxx.o(.text)
    WWDG_IRQHandler                          0x08007053   Thumb Code     0  startup_stm32f40_41xxx.o(.text)
    __user_initial_stackheap                 0x08007055   Thumb Code     0  startup_stm32f40_41xxx.o(.text)
    NVIC_PriorityGroupConfig                 0x08007079   Thumb Code    10  misc.o(.text)
    NVIC_Init                                0x08007083   Thumb Code    96  misc.o(.text)
    NVIC_SetVectorTable                      0x080070e3   Thumb Code    14  misc.o(.text)
    NVIC_SystemLPConfig                      0x080070f1   Thumb Code    20  misc.o(.text)
    SysTick_CLKSourceConfig                  0x08007105   Thumb Code    24  misc.o(.text)
    FSMC_NORSRAMDeInit                       0x08007129   Thumb Code    38  stm32f4xx_fsmc.o(.text)
    FSMC_NORSRAMInit                         0x0800714f   Thumb Code   200  stm32f4xx_fsmc.o(.text)
    FSMC_NORSRAMStructInit                   0x08007217   Thumb Code    42  stm32f4xx_fsmc.o(.text)
    FSMC_NORSRAMCmd                          0x08007241   Thumb Code    26  stm32f4xx_fsmc.o(.text)
    FSMC_NANDDeInit                          0x0800725b   Thumb Code    40  stm32f4xx_fsmc.o(.text)
    FSMC_NANDInit                            0x08007283   Thumb Code   104  stm32f4xx_fsmc.o(.text)
    FSMC_NANDStructInit                      0x080072eb   Thumb Code    54  stm32f4xx_fsmc.o(.text)
    FSMC_NANDCmd                             0x08007321   Thumb Code    54  stm32f4xx_fsmc.o(.text)
    FSMC_NANDECCCmd                          0x08007357   Thumb Code    54  stm32f4xx_fsmc.o(.text)
    FSMC_GetECC                              0x0800738d   Thumb Code    18  stm32f4xx_fsmc.o(.text)
    FSMC_PCCARDDeInit                        0x0800739f   Thumb Code    26  stm32f4xx_fsmc.o(.text)
    FSMC_PCCARDInit                          0x080073b9   Thumb Code   102  stm32f4xx_fsmc.o(.text)
    FSMC_PCCARDStructInit                    0x0800741f   Thumb Code    60  stm32f4xx_fsmc.o(.text)
    FSMC_PCCARDCmd                           0x0800745b   Thumb Code    28  stm32f4xx_fsmc.o(.text)
    FSMC_ITConfig                            0x08007477   Thumb Code    72  stm32f4xx_fsmc.o(.text)
    FSMC_GetFlagStatus                       0x080074bf   Thumb Code    40  stm32f4xx_fsmc.o(.text)
    FSMC_ClearFlag                           0x080074e7   Thumb Code    38  stm32f4xx_fsmc.o(.text)
    FSMC_GetITStatus                         0x0800750d   Thumb Code    48  stm32f4xx_fsmc.o(.text)
    FSMC_ClearITPendingBit                   0x0800753d   Thumb Code    42  stm32f4xx_fsmc.o(.text)
    GPIO_DeInit                              0x08007571   Thumb Code   216  stm32f4xx_gpio.o(.text)
    GPIO_Init                                0x08007649   Thumb Code   120  stm32f4xx_gpio.o(.text)
    GPIO_StructInit                          0x080076c1   Thumb Code    18  stm32f4xx_gpio.o(.text)
    GPIO_PinLockConfig                       0x080076d3   Thumb Code    24  stm32f4xx_gpio.o(.text)
    GPIO_ReadInputDataBit                    0x080076eb   Thumb Code    14  stm32f4xx_gpio.o(.text)
    GPIO_ReadInputData                       0x080076f9   Thumb Code     6  stm32f4xx_gpio.o(.text)
    GPIO_ReadOutputDataBit                   0x080076ff   Thumb Code    14  stm32f4xx_gpio.o(.text)
    GPIO_ReadOutputData                      0x0800770d   Thumb Code     6  stm32f4xx_gpio.o(.text)
    GPIO_SetBits                             0x08007713   Thumb Code     4  stm32f4xx_gpio.o(.text)
    GPIO_ResetBits                           0x08007717   Thumb Code     4  stm32f4xx_gpio.o(.text)
    GPIO_WriteBit                            0x0800771b   Thumb Code    10  stm32f4xx_gpio.o(.text)
    GPIO_Write                               0x08007725   Thumb Code     4  stm32f4xx_gpio.o(.text)
    GPIO_ToggleBits                          0x08007729   Thumb Code     8  stm32f4xx_gpio.o(.text)
    GPIO_PinAFConfig                         0x08007731   Thumb Code    32  stm32f4xx_gpio.o(.text)
    RCC_DeInit                               0x0800777d   Thumb Code    68  stm32f4xx_rcc.o(.text)
    RCC_HSEConfig                            0x080077c1   Thumb Code    12  stm32f4xx_rcc.o(.text)
    RCC_GetFlagStatus                        0x080077cd   Thumb Code    46  stm32f4xx_rcc.o(.text)
    RCC_WaitForHSEStartUp                    0x080077fb   Thumb Code    44  stm32f4xx_rcc.o(.text)
    RCC_AdjustHSICalibrationValue            0x08007827   Thumb Code    16  stm32f4xx_rcc.o(.text)
    RCC_HSICmd                               0x08007837   Thumb Code     6  stm32f4xx_rcc.o(.text)
    RCC_LSEConfig                            0x0800783d   Thumb Code    24  stm32f4xx_rcc.o(.text)
    RCC_LSICmd                               0x08007855   Thumb Code     6  stm32f4xx_rcc.o(.text)
    RCC_PLLConfig                            0x0800785b   Thumb Code    32  stm32f4xx_rcc.o(.text)
    RCC_PLLCmd                               0x0800787b   Thumb Code     6  stm32f4xx_rcc.o(.text)
    RCC_PLLI2SConfig                         0x08007881   Thumb Code    14  stm32f4xx_rcc.o(.text)
    RCC_PLLI2SCmd                            0x0800788f   Thumb Code     6  stm32f4xx_rcc.o(.text)
    RCC_PLLSAIConfig                         0x08007895   Thumb Code    18  stm32f4xx_rcc.o(.text)
    RCC_PLLSAICmd                            0x080078a7   Thumb Code     6  stm32f4xx_rcc.o(.text)
    RCC_ClockSecuritySystemCmd               0x080078ad   Thumb Code     6  stm32f4xx_rcc.o(.text)
    RCC_MCO1Config                           0x080078b3   Thumb Code    18  stm32f4xx_rcc.o(.text)
    RCC_MCO2Config                           0x080078c5   Thumb Code    18  stm32f4xx_rcc.o(.text)
    RCC_SYSCLKConfig                         0x080078d7   Thumb Code    16  stm32f4xx_rcc.o(.text)
    RCC_GetSYSCLKSource                      0x080078e7   Thumb Code    12  stm32f4xx_rcc.o(.text)
    RCC_HCLKConfig                           0x080078f3   Thumb Code    16  stm32f4xx_rcc.o(.text)
    RCC_PCLK1Config                          0x08007903   Thumb Code    16  stm32f4xx_rcc.o(.text)
    RCC_PCLK2Config                          0x08007913   Thumb Code    18  stm32f4xx_rcc.o(.text)
    RCC_GetClocksFreq                        0x08007925   Thumb Code   134  stm32f4xx_rcc.o(.text)
    RCC_RTCCLKConfig                         0x080079ab   Thumb Code    42  stm32f4xx_rcc.o(.text)
    RCC_RTCCLKCmd                            0x080079d5   Thumb Code     8  stm32f4xx_rcc.o(.text)
    RCC_BackupResetCmd                       0x080079dd   Thumb Code     8  stm32f4xx_rcc.o(.text)
    RCC_I2SCLKConfig                         0x080079e5   Thumb Code     8  stm32f4xx_rcc.o(.text)
    RCC_SAIPLLI2SClkDivConfig                0x080079ed   Thumb Code    18  stm32f4xx_rcc.o(.text)
    RCC_SAIPLLSAIClkDivConfig                0x080079ff   Thumb Code    24  stm32f4xx_rcc.o(.text)
    RCC_SAIBlockACLKConfig                   0x08007a17   Thumb Code    16  stm32f4xx_rcc.o(.text)
    RCC_SAIBlockBCLKConfig                   0x08007a27   Thumb Code    16  stm32f4xx_rcc.o(.text)
    RCC_LTDCCLKDivConfig                     0x08007a37   Thumb Code    16  stm32f4xx_rcc.o(.text)
    RCC_TIMCLKPresConfig                     0x08007a47   Thumb Code     8  stm32f4xx_rcc.o(.text)
    RCC_AHB1PeriphClockCmd                   0x08007a4f   Thumb Code    20  stm32f4xx_rcc.o(.text)
    RCC_AHB2PeriphClockCmd                   0x08007a63   Thumb Code    20  stm32f4xx_rcc.o(.text)
    RCC_AHB3PeriphClockCmd                   0x08007a77   Thumb Code    20  stm32f4xx_rcc.o(.text)
    RCC_APB1PeriphClockCmd                   0x08007a8b   Thumb Code    20  stm32f4xx_rcc.o(.text)
    RCC_APB2PeriphClockCmd                   0x08007a9f   Thumb Code    20  stm32f4xx_rcc.o(.text)
    RCC_AHB1PeriphResetCmd                   0x08007ab3   Thumb Code    20  stm32f4xx_rcc.o(.text)
    RCC_AHB2PeriphResetCmd                   0x08007ac7   Thumb Code    20  stm32f4xx_rcc.o(.text)
    RCC_AHB3PeriphResetCmd                   0x08007adb   Thumb Code    20  stm32f4xx_rcc.o(.text)
    RCC_APB1PeriphResetCmd                   0x08007aef   Thumb Code    20  stm32f4xx_rcc.o(.text)
    RCC_APB2PeriphResetCmd                   0x08007b03   Thumb Code    20  stm32f4xx_rcc.o(.text)
    RCC_AHB1PeriphClockLPModeCmd             0x08007b17   Thumb Code    20  stm32f4xx_rcc.o(.text)
    RCC_AHB2PeriphClockLPModeCmd             0x08007b2b   Thumb Code    20  stm32f4xx_rcc.o(.text)
    RCC_AHB3PeriphClockLPModeCmd             0x08007b3f   Thumb Code    20  stm32f4xx_rcc.o(.text)
    RCC_APB1PeriphClockLPModeCmd             0x08007b53   Thumb Code    64  stm32f4xx_rcc.o(.text)
    RCC_APB2PeriphClockLPModeCmd             0x08007b93   Thumb Code    18  stm32f4xx_rcc.o(.text)
    RCC_LSEModeConfig                        0x08007ba5   Thumb Code    24  stm32f4xx_rcc.o(.text)
    RCC_ITConfig                             0x08007bbd   Thumb Code    20  stm32f4xx_rcc.o(.text)
    RCC_ClearFlag                            0x08007bd1   Thumb Code    14  stm32f4xx_rcc.o(.text)
    RCC_GetITStatus                          0x08007bdf   Thumb Code    18  stm32f4xx_rcc.o(.text)
    RCC_ClearITPendingBit                    0x08007bf1   Thumb Code     8  stm32f4xx_rcc.o(.text)
    USART_DeInit                             0x08007bfd   Thumb Code   138  stm32f4xx_usart.o(.text)
    USART_Init                               0x08007c87   Thumb Code   164  stm32f4xx_usart.o(.text)
    USART_StructInit                         0x08007d2b   Thumb Code    22  stm32f4xx_usart.o(.text)
    USART_ClockInit                          0x08007d41   Thumb Code    28  stm32f4xx_usart.o(.text)
    USART_ClockStructInit                    0x08007d5d   Thumb Code    12  stm32f4xx_usart.o(.text)
    USART_Cmd                                0x08007d69   Thumb Code    20  stm32f4xx_usart.o(.text)
    USART_SetPrescaler                       0x08007d7d   Thumb Code    16  stm32f4xx_usart.o(.text)
    USART_OverSampling8Cmd                   0x08007d8d   Thumb Code    20  stm32f4xx_usart.o(.text)
    USART_OneBitMethodCmd                    0x08007da1   Thumb Code    20  stm32f4xx_usart.o(.text)
    USART_SendData                           0x08007db5   Thumb Code     8  stm32f4xx_usart.o(.text)
    USART_ReceiveData                        0x08007dbd   Thumb Code     8  stm32f4xx_usart.o(.text)
    USART_SetAddress                         0x08007dc5   Thumb Code    16  stm32f4xx_usart.o(.text)
    USART_ReceiverWakeUpCmd                  0x08007dd5   Thumb Code    20  stm32f4xx_usart.o(.text)
    USART_WakeUpConfig                       0x08007de9   Thumb Code    16  stm32f4xx_usart.o(.text)
    USART_LINBreakDetectLengthConfig         0x08007df9   Thumb Code    16  stm32f4xx_usart.o(.text)
    USART_LINCmd                             0x08007e09   Thumb Code    20  stm32f4xx_usart.o(.text)
    USART_SendBreak                          0x08007e1d   Thumb Code    10  stm32f4xx_usart.o(.text)
    USART_HalfDuplexCmd                      0x08007e27   Thumb Code    20  stm32f4xx_usart.o(.text)
    USART_SetGuardTime                       0x08007e3b   Thumb Code    16  stm32f4xx_usart.o(.text)
    USART_SmartCardCmd                       0x08007e4b   Thumb Code    20  stm32f4xx_usart.o(.text)
    USART_SmartCardNACKCmd                   0x08007e5f   Thumb Code    20  stm32f4xx_usart.o(.text)
    USART_IrDAConfig                         0x08007e73   Thumb Code    16  stm32f4xx_usart.o(.text)
    USART_IrDACmd                            0x08007e83   Thumb Code    20  stm32f4xx_usart.o(.text)
    USART_DMACmd                             0x08007e97   Thumb Code    16  stm32f4xx_usart.o(.text)
    USART_ITConfig                           0x08007ea7   Thumb Code    48  stm32f4xx_usart.o(.text)
    USART_GetFlagStatus                      0x08007ed7   Thumb Code    14  stm32f4xx_usart.o(.text)
    USART_ClearFlag                          0x08007ee5   Thumb Code     6  stm32f4xx_usart.o(.text)
    USART_GetITStatus                        0x08007eeb   Thumb Code    62  stm32f4xx_usart.o(.text)
    USART_ClearITPendingBit                  0x08007f29   Thumb Code    12  stm32f4xx_usart.o(.text)
    TIM_DeInit                               0x08007f55   Thumb Code   284  stm32f4xx_tim.o(.text)
    TIM_TimeBaseInit                         0x08008071   Thumb Code    96  stm32f4xx_tim.o(.text)
    TIM_TimeBaseStructInit                   0x080080d1   Thumb Code    18  stm32f4xx_tim.o(.text)
    TIM_PrescalerConfig                      0x080080e3   Thumb Code     6  stm32f4xx_tim.o(.text)
    TIM_CounterModeConfig                    0x080080e9   Thumb Code    12  stm32f4xx_tim.o(.text)
    TIM_SetCounter                           0x080080f5   Thumb Code     4  stm32f4xx_tim.o(.text)
    TIM_SetAutoreload                        0x080080f9   Thumb Code     4  stm32f4xx_tim.o(.text)
    TIM_GetCounter                           0x080080fd   Thumb Code     4  stm32f4xx_tim.o(.text)
    TIM_GetPrescaler                         0x08008101   Thumb Code     4  stm32f4xx_tim.o(.text)
    TIM_UpdateDisableConfig                  0x08008105   Thumb Code    20  stm32f4xx_tim.o(.text)
    TIM_UpdateRequestConfig                  0x08008119   Thumb Code    20  stm32f4xx_tim.o(.text)
    TIM_ARRPreloadConfig                     0x0800812d   Thumb Code    20  stm32f4xx_tim.o(.text)
    TIM_SelectOnePulseMode                   0x08008141   Thumb Code    16  stm32f4xx_tim.o(.text)
    TIM_SetClockDivision                     0x08008151   Thumb Code    16  stm32f4xx_tim.o(.text)
    TIM_Cmd                                  0x08008161   Thumb Code    20  stm32f4xx_tim.o(.text)
    TIM_OC1Init                              0x08008175   Thumb Code    88  stm32f4xx_tim.o(.text)
    TIM_OC2Init                              0x080081cd   Thumb Code   120  stm32f4xx_tim.o(.text)
    TIM_OC3Init                              0x08008245   Thumb Code   116  stm32f4xx_tim.o(.text)
    TIM_OC4Init                              0x080082b9   Thumb Code    88  stm32f4xx_tim.o(.text)
    TIM_OCStructInit                         0x08008311   Thumb Code    20  stm32f4xx_tim.o(.text)
    TIM_SelectOCxM                           0x08008325   Thumb Code   130  stm32f4xx_tim.o(.text)
    TIM_SetCompare1                          0x080083a7   Thumb Code     4  stm32f4xx_tim.o(.text)
    TIM_SetCompare2                          0x080083ab   Thumb Code     4  stm32f4xx_tim.o(.text)
    TIM_SetCompare3                          0x080083af   Thumb Code     4  stm32f4xx_tim.o(.text)
    TIM_SetCompare4                          0x080083b3   Thumb Code     4  stm32f4xx_tim.o(.text)
    TIM_ForcedOC1Config                      0x080083b7   Thumb Code    12  stm32f4xx_tim.o(.text)
    TIM_ForcedOC2Config                      0x080083c3   Thumb Code    20  stm32f4xx_tim.o(.text)
    TIM_ForcedOC3Config                      0x080083d7   Thumb Code    12  stm32f4xx_tim.o(.text)
    TIM_ForcedOC4Config                      0x080083e3   Thumb Code    20  stm32f4xx_tim.o(.text)
    TIM_OC1PreloadConfig                     0x080083f7   Thumb Code    12  stm32f4xx_tim.o(.text)
    TIM_OC2PreloadConfig                     0x08008403   Thumb Code    20  stm32f4xx_tim.o(.text)
    TIM_OC3PreloadConfig                     0x08008417   Thumb Code    12  stm32f4xx_tim.o(.text)
    TIM_OC4PreloadConfig                     0x08008423   Thumb Code    20  stm32f4xx_tim.o(.text)
    TIM_OC1FastConfig                        0x08008437   Thumb Code    12  stm32f4xx_tim.o(.text)
    TIM_OC2FastConfig                        0x08008443   Thumb Code    20  stm32f4xx_tim.o(.text)
    TIM_OC3FastConfig                        0x08008457   Thumb Code    12  stm32f4xx_tim.o(.text)
    TIM_OC4FastConfig                        0x08008463   Thumb Code    20  stm32f4xx_tim.o(.text)
    TIM_ClearOC1Ref                          0x08008477   Thumb Code    12  stm32f4xx_tim.o(.text)
    TIM_ClearOC2Ref                          0x08008483   Thumb Code    20  stm32f4xx_tim.o(.text)
    TIM_ClearOC3Ref                          0x08008497   Thumb Code    12  stm32f4xx_tim.o(.text)
    TIM_ClearOC4Ref                          0x080084a3   Thumb Code    20  stm32f4xx_tim.o(.text)
    TIM_OC1PolarityConfig                    0x080084b7   Thumb Code    12  stm32f4xx_tim.o(.text)
    TIM_OC1NPolarityConfig                   0x080084c3   Thumb Code    12  stm32f4xx_tim.o(.text)
    TIM_OC2PolarityConfig                    0x080084cf   Thumb Code    20  stm32f4xx_tim.o(.text)
    TIM_OC2NPolarityConfig                   0x080084e3   Thumb Code    20  stm32f4xx_tim.o(.text)
    TIM_OC3PolarityConfig                    0x080084f7   Thumb Code    20  stm32f4xx_tim.o(.text)
    TIM_OC3NPolarityConfig                   0x0800850b   Thumb Code    20  stm32f4xx_tim.o(.text)
    TIM_OC4PolarityConfig                    0x0800851f   Thumb Code    20  stm32f4xx_tim.o(.text)
    TIM_CCxCmd                               0x08008533   Thumb Code    22  stm32f4xx_tim.o(.text)
    TIM_CCxNCmd                              0x08008549   Thumb Code    22  stm32f4xx_tim.o(.text)
    TIM_SetIC4Prescaler                      0x0800855f   Thumb Code    24  stm32f4xx_tim.o(.text)
    TIM_SetIC3Prescaler                      0x08008577   Thumb Code    16  stm32f4xx_tim.o(.text)
    TIM_SetIC2Prescaler                      0x08008587   Thumb Code    24  stm32f4xx_tim.o(.text)
    TIM_SetIC1Prescaler                      0x080085d5   Thumb Code    16  stm32f4xx_tim.o(.text)
    TIM_ICInit                               0x080085e5   Thumb Code   164  stm32f4xx_tim.o(.text)
    TIM_ICStructInit                         0x08008689   Thumb Code    16  stm32f4xx_tim.o(.text)
    TIM_PWMIConfig                           0x08008699   Thumb Code   104  stm32f4xx_tim.o(.text)
    TIM_GetCapture1                          0x08008701   Thumb Code     4  stm32f4xx_tim.o(.text)
    TIM_GetCapture2                          0x08008705   Thumb Code     4  stm32f4xx_tim.o(.text)
    TIM_GetCapture3                          0x08008709   Thumb Code     4  stm32f4xx_tim.o(.text)
    TIM_GetCapture4                          0x0800870d   Thumb Code     4  stm32f4xx_tim.o(.text)
    TIM_BDTRConfig                           0x08008711   Thumb Code    34  stm32f4xx_tim.o(.text)
    TIM_BDTRStructInit                       0x08008733   Thumb Code    18  stm32f4xx_tim.o(.text)
    TIM_CtrlPWMOutputs                       0x08008745   Thumb Code    22  stm32f4xx_tim.o(.text)
    TIM_SelectCOM                            0x0800875b   Thumb Code    20  stm32f4xx_tim.o(.text)
    TIM_CCPreloadControl                     0x0800876f   Thumb Code    20  stm32f4xx_tim.o(.text)
    TIM_ITConfig                             0x08008783   Thumb Code    16  stm32f4xx_tim.o(.text)
    TIM_GenerateEvent                        0x08008793   Thumb Code     4  stm32f4xx_tim.o(.text)
    TIM_GetFlagStatus                        0x08008797   Thumb Code    14  stm32f4xx_tim.o(.text)
    TIM_ClearFlag                            0x080087a5   Thumb Code     6  stm32f4xx_tim.o(.text)
    TIM_GetITStatus                          0x080087ab   Thumb Code    24  stm32f4xx_tim.o(.text)
    TIM_ClearITPendingBit                    0x080087c3   Thumb Code     6  stm32f4xx_tim.o(.text)
    TIM_DMAConfig                            0x080087c9   Thumb Code     8  stm32f4xx_tim.o(.text)
    TIM_DMACmd                               0x080087d1   Thumb Code    16  stm32f4xx_tim.o(.text)
    TIM_SelectCCDMA                          0x080087e1   Thumb Code    20  stm32f4xx_tim.o(.text)
    TIM_InternalClockConfig                  0x080087f5   Thumb Code    10  stm32f4xx_tim.o(.text)
    TIM_SelectInputTrigger                   0x080087ff   Thumb Code    12  stm32f4xx_tim.o(.text)
    TIM_ITRxExternalClockConfig              0x0800880b   Thumb Code    18  stm32f4xx_tim.o(.text)
    TIM_TIxExternalClockConfig               0x0800881d   Thumb Code    46  stm32f4xx_tim.o(.text)
    TIM_ETRConfig                            0x0800884b   Thumb Code    24  stm32f4xx_tim.o(.text)
    TIM_ETRClockMode1Config                  0x08008863   Thumb Code    18  stm32f4xx_tim.o(.text)
    TIM_ETRClockMode2Config                  0x08008875   Thumb Code    18  stm32f4xx_tim.o(.text)
    TIM_SelectOutputTrigger                  0x08008887   Thumb Code    16  stm32f4xx_tim.o(.text)
    TIM_SelectSlaveMode                      0x08008897   Thumb Code    16  stm32f4xx_tim.o(.text)
    TIM_SelectMasterSlaveMode                0x080088a7   Thumb Code    16  stm32f4xx_tim.o(.text)
    TIM_EncoderInterfaceConfig               0x080088b7   Thumb Code    50  stm32f4xx_tim.o(.text)
    TIM_SelectHallSensor                     0x080088e9   Thumb Code    20  stm32f4xx_tim.o(.text)
    TIM_RemapConfig                          0x080088fd   Thumb Code     6  stm32f4xx_tim.o(.text)
    SPI_I2S_DeInit                           0x08008931   Thumb Code   108  stm32f4xx_spi.o(.text)
    SPI_Init                                 0x0800899d   Thumb Code    56  stm32f4xx_spi.o(.text)
    I2S_Init                                 0x080089d5   Thumb Code   198  stm32f4xx_spi.o(.text)
    SPI_StructInit                           0x08008a9b   Thumb Code    24  stm32f4xx_spi.o(.text)
    I2S_StructInit                           0x08008ab3   Thumb Code    18  stm32f4xx_spi.o(.text)
    SPI_Cmd                                  0x08008ac5   Thumb Code    20  stm32f4xx_spi.o(.text)
    I2S_Cmd                                  0x08008ad9   Thumb Code    20  stm32f4xx_spi.o(.text)
    SPI_DataSizeConfig                       0x08008aed   Thumb Code    16  stm32f4xx_spi.o(.text)
    SPI_BiDirectionalLineConfig              0x08008afd   Thumb Code    22  stm32f4xx_spi.o(.text)
    SPI_NSSInternalSoftwareConfig            0x08008b13   Thumb Code    24  stm32f4xx_spi.o(.text)
    SPI_SSOutputCmd                          0x08008b2b   Thumb Code    20  stm32f4xx_spi.o(.text)
    SPI_TIModeCmd                            0x08008b3f   Thumb Code    20  stm32f4xx_spi.o(.text)
    I2S_FullDuplexConfig                     0x08008b53   Thumb Code    58  stm32f4xx_spi.o(.text)
    SPI_I2S_ReceiveData                      0x08008b8d   Thumb Code     4  stm32f4xx_spi.o(.text)
    SPI_I2S_SendData                         0x08008b91   Thumb Code     4  stm32f4xx_spi.o(.text)
    SPI_CalculateCRC                         0x08008b95   Thumb Code    20  stm32f4xx_spi.o(.text)
    SPI_TransmitCRC                          0x08008ba9   Thumb Code    10  stm32f4xx_spi.o(.text)
    SPI_GetCRC                               0x08008bb3   Thumb Code    12  stm32f4xx_spi.o(.text)
    SPI_GetCRCPolynomial                     0x08008bbf   Thumb Code     4  stm32f4xx_spi.o(.text)
    SPI_I2S_DMACmd                           0x08008bc3   Thumb Code    16  stm32f4xx_spi.o(.text)
    SPI_I2S_ITConfig                         0x08008bd3   Thumb Code    24  stm32f4xx_spi.o(.text)
    SPI_I2S_GetFlagStatus                    0x08008beb   Thumb Code    14  stm32f4xx_spi.o(.text)
    SPI_I2S_ClearFlag                        0x08008bf9   Thumb Code     6  stm32f4xx_spi.o(.text)
    SPI_I2S_GetITStatus                      0x08008bff   Thumb Code    44  stm32f4xx_spi.o(.text)
    SPI_I2S_ClearITPendingBit                0x08008c2b   Thumb Code    14  stm32f4xx_spi.o(.text)
    SDIO_DeInit                              0x08008c5d   Thumb Code    24  stm32f4xx_sdio.o(.text)
    SDIO_Init                                0x08008c75   Thumb Code    40  stm32f4xx_sdio.o(.text)
    SDIO_StructInit                          0x08008c9d   Thumb Code    16  stm32f4xx_sdio.o(.text)
    SDIO_ClockCmd                            0x08008cad   Thumb Code     8  stm32f4xx_sdio.o(.text)
    SDIO_SetPowerState                       0x08008cb5   Thumb Code     8  stm32f4xx_sdio.o(.text)
    SDIO_GetPowerState                       0x08008cbd   Thumb Code    12  stm32f4xx_sdio.o(.text)
    SDIO_SendCommand                         0x08008cc9   Thumb Code    38  stm32f4xx_sdio.o(.text)
    SDIO_CmdStructInit                       0x08008cef   Thumb Code    14  stm32f4xx_sdio.o(.text)
    SDIO_GetCommandResponse                  0x08008cfd   Thumb Code    10  stm32f4xx_sdio.o(.text)
    SDIO_GetResponse                         0x08008d07   Thumb Code    14  stm32f4xx_sdio.o(.text)
    SDIO_DataConfig                          0x08008d15   Thumb Code    44  stm32f4xx_sdio.o(.text)
    SDIO_DataStructInit                      0x08008d41   Thumb Code    20  stm32f4xx_sdio.o(.text)
    SDIO_GetDataCounter                      0x08008d55   Thumb Code     8  stm32f4xx_sdio.o(.text)
    SDIO_ReadData                            0x08008d5d   Thumb Code     8  stm32f4xx_sdio.o(.text)
    SDIO_WriteData                           0x08008d65   Thumb Code     8  stm32f4xx_sdio.o(.text)
    SDIO_GetFIFOCount                        0x08008d6d   Thumb Code     8  stm32f4xx_sdio.o(.text)
    SDIO_StartSDIOReadWait                   0x08008d75   Thumb Code     6  stm32f4xx_sdio.o(.text)
    SDIO_StopSDIOReadWait                    0x08008d7b   Thumb Code     8  stm32f4xx_sdio.o(.text)
    SDIO_SetSDIOReadWaitMode                 0x08008d83   Thumb Code     8  stm32f4xx_sdio.o(.text)
    SDIO_SetSDIOOperation                    0x08008d8b   Thumb Code     8  stm32f4xx_sdio.o(.text)
    SDIO_SendSDIOSuspendCmd                  0x08008d93   Thumb Code     8  stm32f4xx_sdio.o(.text)
    SDIO_CommandCompletionCmd                0x08008d9b   Thumb Code     8  stm32f4xx_sdio.o(.text)
    SDIO_CEATAITCmd                          0x08008da3   Thumb Code    12  stm32f4xx_sdio.o(.text)
    SDIO_SendCEATACmd                        0x08008daf   Thumb Code     8  stm32f4xx_sdio.o(.text)
    SDIO_DMACmd                              0x08008db7   Thumb Code     8  stm32f4xx_sdio.o(.text)
    SDIO_ITConfig                            0x08008dbf   Thumb Code    20  stm32f4xx_sdio.o(.text)
    SDIO_GetFlagStatus                       0x08008dd3   Thumb Code    18  stm32f4xx_sdio.o(.text)
    SDIO_ClearFlag                           0x08008de5   Thumb Code     8  stm32f4xx_sdio.o(.text)
    SDIO_GetITStatus                         0x08008ded   Thumb Code    18  stm32f4xx_sdio.o(.text)
    SDIO_ClearITPendingBit                   0x08008dff   Thumb Code     8  stm32f4xx_sdio.o(.text)
    DMA_DeInit                               0x08008e15   Thumb Code   272  stm32f4xx_dma.o(.text)
    DMA_Init                                 0x08008f25   Thumb Code    80  stm32f4xx_dma.o(.text)
    DMA_StructInit                           0x08008f75   Thumb Code    34  stm32f4xx_dma.o(.text)
    DMA_Cmd                                  0x08008f97   Thumb Code    20  stm32f4xx_dma.o(.text)
    DMA_PeriphIncOffsetSizeConfig            0x08008fab   Thumb Code    20  stm32f4xx_dma.o(.text)
    DMA_FlowControllerConfig                 0x08008fbf   Thumb Code    20  stm32f4xx_dma.o(.text)
    DMA_SetCurrDataCounter                   0x08008fd3   Thumb Code     4  stm32f4xx_dma.o(.text)
    DMA_GetCurrDataCounter                   0x08008fd7   Thumb Code     6  stm32f4xx_dma.o(.text)
    DMA_DoubleBufferModeConfig               0x08008fdd   Thumb Code    22  stm32f4xx_dma.o(.text)
    DMA_DoubleBufferModeCmd                  0x08008ff3   Thumb Code    20  stm32f4xx_dma.o(.text)
    DMA_MemoryTargetConfig                   0x08009007   Thumb Code    10  stm32f4xx_dma.o(.text)
    DMA_GetCurrentMemoryTarget               0x08009011   Thumb Code    14  stm32f4xx_dma.o(.text)
    DMA_GetCmdStatus                         0x0800901f   Thumb Code    14  stm32f4xx_dma.o(.text)
    DMA_GetFIFOStatus                        0x0800902d   Thumb Code     8  stm32f4xx_dma.o(.text)
    DMA_GetFlagStatus                        0x08009035   Thumb Code    42  stm32f4xx_dma.o(.text)
    DMA_ClearFlag                            0x0800905f   Thumb Code    34  stm32f4xx_dma.o(.text)
    DMA_ITConfig                             0x08009081   Thumb Code    44  stm32f4xx_dma.o(.text)
    DMA_GetITStatus                          0x080090ad   Thumb Code    70  stm32f4xx_dma.o(.text)
    DMA_ClearITPendingBit                    0x080090f3   Thumb Code    34  stm32f4xx_dma.o(.text)
    usmart_sys_cmd_exe                       0x08009135   Thumb Code  1442  usmart.o(.text)
    usmart_reset_runtime                     0x080096d7   Thumb Code    40  usmart.o(.text)
    usmart_get_runtime                       0x080096ff   Thumb Code    48  usmart.o(.text)
    TIM4_IRQHandler                          0x0800972f   Thumb Code    50  usmart.o(.text)
    Timer4_Init                              0x08009761   Thumb Code    88  usmart.o(.text)
    usmart_init                              0x080097b9   Thumb Code    36  usmart.o(.text)
    usmart_cmd_rec                           0x080097dd   Thumb Code   144  usmart.o(.text)
    usmart_exe                               0x0800986d   Thumb Code   768  usmart.o(.text)
    usmart_scan                              0x08009b6d   Thumb Code    92  usmart.o(.text)
    read_addr                                0x08009bc9   Thumb Code     4  usmart.o(.text)
    write_addr                               0x08009bcd   Thumb Code     4  usmart.o(.text)
    usmart_strcmp                            0x08009c49   Thumb Code    24  usmart_str.o(.text)
    usmart_strcopy                           0x08009c61   Thumb Code    18  usmart_str.o(.text)
    usmart_strlen                            0x08009c73   Thumb Code    18  usmart_str.o(.text)
    usmart_pow                               0x08009c85   Thumb Code    16  usmart_str.o(.text)
    usmart_str2num                           0x08009c95   Thumb Code   158  usmart_str.o(.text)
    usmart_get_cmdname                       0x08009d33   Thumb Code    46  usmart_str.o(.text)
    usmart_search_nextc                      0x08009d61   Thumb Code    16  usmart_str.o(.text)
    usmart_get_fname                         0x08009d71   Thumb Code   356  usmart_str.o(.text)
    usmart_get_aparm                         0x08009ed5   Thumb Code   156  usmart_str.o(.text)
    usmart_get_parmpos                       0x08009f71   Thumb Code    30  usmart_str.o(.text)
    usmart_get_fparam                        0x08009f8f   Thumb Code   206  usmart_str.o(.text)
    mymemcpy                                 0x0800a069   Thumb Code    16  malloc.o(.text)
    mymemset                                 0x0800a079   Thumb Code    12  malloc.o(.text)
    my_mem_init                              0x0800a085   Thumb Code    52  malloc.o(.text)
    my_mem_perused                           0x0800a0b9   Thumb Code    48  malloc.o(.text)
    my_mem_malloc                            0x0800a0e9   Thumb Code   132  malloc.o(.text)
    my_mem_free                              0x0800a16d   Thumb Code    82  malloc.o(.text)
    myfree                                   0x0800a1bf   Thumb Code    18  malloc.o(.text)
    mymalloc                                 0x0800a1d1   Thumb Code    28  malloc.o(.text)
    myrealloc                                0x0800a1ed   Thumb Code    54  malloc.o(.text)
    disk_initialize                          0x0800a22d   Thumb Code    50  diskio.o(.text)
    disk_status                              0x0800a25f   Thumb Code     4  diskio.o(.text)
    disk_read                                0x0800a263   Thumb Code    96  diskio.o(.text)
    disk_write                               0x0800a2c3   Thumb Code    94  diskio.o(.text)
    disk_ioctl                               0x0800a321   Thumb Code   126  diskio.o(.text)
    get_fattime                              0x0800a39f   Thumb Code     4  diskio.o(.text)
    ff_memalloc                              0x0800a3a3   Thumb Code     8  diskio.o(.text)
    ff_memfree                               0x0800a3ab   Thumb Code     8  diskio.o(.text)
    clust2sect                               0x0800a4ef   Thumb Code    24  ff.o(.text)
    get_fat                                  0x0800a507   Thumb Code   180  ff.o(.text)
    put_fat                                  0x0800a5bb   Thumb Code   248  ff.o(.text)
    dir_sdi                                  0x0800a7d3   Thumb Code   124  ff.o(.text)
    f_mount                                  0x0800b37d   Thumb Code    72  ff.o(.text)
    f_open                                   0x0800b3c5   Thumb Code   344  ff.o(.text)
    f_read                                   0x0800b51d   Thumb Code   328  ff.o(.text)
    f_write                                  0x0800b665   Thumb Code   400  ff.o(.text)
    f_sync                                   0x0800b7f5   Thumb Code   152  ff.o(.text)
    f_close                                  0x0800b88d   Thumb Code    28  ff.o(.text)
    f_lseek                                  0x0800b8a9   Thumb Code   510  ff.o(.text)
    f_opendir                                0x0800baa7   Thumb Code   128  ff.o(.text)
    f_closedir                               0x0800bb27   Thumb Code    18  ff.o(.text)
    f_readdir                                0x0800bb39   Thumb Code   116  ff.o(.text)
    f_stat                                   0x0800bbad   Thumb Code    86  ff.o(.text)
    f_getfree                                0x0800bc03   Thumb Code   192  ff.o(.text)
    f_truncate                               0x0800bcc3   Thumb Code   176  ff.o(.text)
    f_unlink                                 0x0800bd73   Thumb Code   190  ff.o(.text)
    f_mkdir                                  0x0800be31   Thumb Code   384  ff.o(.text)
    f_chmod                                  0x0800bfb1   Thumb Code   106  ff.o(.text)
    f_utime                                  0x0800c01b   Thumb Code   108  ff.o(.text)
    f_rename                                 0x0800c087   Thumb Code   292  ff.o(.text)
    f_getlabel                               0x0800c1ab   Thumb Code   142  ff.o(.text)
    f_setlabel                               0x0800c239   Thumb Code   346  ff.o(.text)
    f_mkfs                                   0x0800c393   Thumb Code  1314  ff.o(.text)
    f_gets                                   0x0800c8b5   Thumb Code    68  ff.o(.text)
    f_putc                                   0x0800c933   Thumb Code    60  ff.o(.text)
    f_puts                                   0x0800c96f   Thumb Code    70  ff.o(.text)
    f_printf                                 0x0800c9b5   Thumb Code   510  ff.o(.text)
    exfuns_init                              0x0800cca9   Thumb Code    92  exfuns.o(.text)
    char_upper                               0x0800cd05   Thumb Code    14  exfuns.o(.text)
    f_typetell                               0x0800cd13   Thumb Code   130  exfuns.o(.text)
    exf_getfree                              0x0800cd95   Thumb Code    46  exfuns.o(.text)
    mf_mount                                 0x0800cdd1   Thumb Code    14  fattester.o(.text)
    mf_open                                  0x0800cddf   Thumb Code    12  fattester.o(.text)
    mf_close                                 0x0800cdeb   Thumb Code    14  fattester.o(.text)
    mf_read                                  0x0800cdf9   Thumb Code   210  fattester.o(.text)
    mf_write                                 0x0800cecb   Thumb Code    64  fattester.o(.text)
    mf_opendir                               0x0800cf0b   Thumb Code     8  fattester.o(.text)
    mf_closedir                              0x0800cf13   Thumb Code     6  fattester.o(.text)
    mf_readdir                               0x0800cf19   Thumb Code   170  fattester.o(.text)
    mf_scan_files                            0x0800cfc3   Thumb Code   100  fattester.o(.text)
    mf_showfree                              0x0800d027   Thumb Code    64  fattester.o(.text)
    mf_lseek                                 0x0800d067   Thumb Code    10  fattester.o(.text)
    mf_tell                                  0x0800d071   Thumb Code     8  fattester.o(.text)
    mf_size                                  0x0800d079   Thumb Code     8  fattester.o(.text)
    mf_mkdir                                 0x0800d081   Thumb Code     4  fattester.o(.text)
    mf_fmkfs                                 0x0800d085   Thumb Code     4  fattester.o(.text)
    mf_unlink                                0x0800d089   Thumb Code     4  fattester.o(.text)
    mf_rename                                0x0800d08d   Thumb Code     4  fattester.o(.text)
    mf_getlabel                              0x0800d091   Thumb Code    56  fattester.o(.text)
    mf_setlabel                              0x0800d0c9   Thumb Code    28  fattester.o(.text)
    mf_gets                                  0x0800d0e5   Thumb Code    36  fattester.o(.text)
    mf_putc                                  0x0800d109   Thumb Code    14  fattester.o(.text)
    mf_puts                                  0x0800d117   Thumb Code    14  fattester.o(.text)
    ff_convert                               0x0800d3d1   Thumb Code    68  cc936.o(.text)
    ff_wtoupper                              0x0800d415   Thumb Code    28  cc936.o(.text)
    USB_OTG_WritePacket                      0x0800d495   Thumb Code    40  usb_core.o(.text)
    USB_OTG_ReadPacket                       0x0800d4bd   Thumb Code    32  usb_core.o(.text)
    USB_OTG_SelectCore                       0x0800d4dd   Thumb Code   188  usb_core.o(.text)
    USB_OTG_CoreInit                         0x0800d599   Thumb Code   128  usb_core.o(.text)
    USB_OTG_EnableGlobalInt                  0x0800d619   Thumb Code    16  usb_core.o(.text)
    USB_OTG_DisableGlobalInt                 0x0800d629   Thumb Code    16  usb_core.o(.text)
    USB_OTG_FlushTxFifo                      0x0800d639   Thumb Code    62  usb_core.o(.text)
    USB_OTG_FlushRxFifo                      0x0800d677   Thumb Code    54  usb_core.o(.text)
    USB_OTG_SetCurrentMode                   0x0800d6ad   Thumb Code    42  usb_core.o(.text)
    USB_OTG_GetMode                          0x0800d6d7   Thumb Code    10  usb_core.o(.text)
    USB_OTG_IsDeviceMode                     0x0800d6e1   Thumb Code    18  usb_core.o(.text)
    USB_OTG_IsHostMode                       0x0800d6f3   Thumb Code    14  usb_core.o(.text)
    USB_OTG_ReadCoreItr                      0x0800d701   Thumb Code    10  usb_core.o(.text)
    USB_OTG_ReadOtgItr                       0x0800d70b   Thumb Code     6  usb_core.o(.text)
    USB_OTG_EnableHostInt                    0x0800d711   Thumb Code    66  usb_core.o(.text)
    USB_OTG_ReadHPRT0                        0x0800d753   Thumb Code    12  usb_core.o(.text)
    USB_OTG_DriveVbus                        0x0800d75f   Thumb Code    60  usb_core.o(.text)
    USB_OTG_ResetPort                        0x0800d79b   Thumb Code    42  usb_core.o(.text)
    USB_OTG_InitFSLSPClkSel                  0x0800d7c5   Thumb Code    12  usb_core.o(.text)
    USB_OTG_CoreInitHost                     0x0800d7d1   Thumb Code   180  usb_core.o(.text)
    USB_OTG_IsEvenFrame                      0x0800d885   Thumb Code    12  usb_core.o(.text)
    USB_OTG_ReadHostAllChannels_intr         0x0800d891   Thumb Code     6  usb_core.o(.text)
    USB_OTG_HC_Init                          0x0800d897   Thumb Code   236  usb_core.o(.text)
    USB_OTG_HC_StartXfer                     0x0800d983   Thumb Code   256  usb_core.o(.text)
    USB_OTG_HC_Halt                          0x0800da83   Thumb Code    60  usb_core.o(.text)
    USB_OTG_HC_DoPing                        0x0800dabf   Thumb Code    42  usb_core.o(.text)
    USB_OTG_StopHost                         0x0800dae9   Thumb Code    64  usb_core.o(.text)
    HCD_Init                                 0x0800db29   Thumb Code    86  usb_hcd.o(.text)
    HCD_GetCurrentSpeed                      0x0800db7f   Thumb Code    12  usb_hcd.o(.text)
    HCD_ResetPort                            0x0800db8b   Thumb Code    10  usb_hcd.o(.text)
    HCD_IsDeviceConnected                    0x0800db95   Thumb Code     6  usb_hcd.o(.text)
    HCD_GetCurrentFrame                      0x0800db9b   Thumb Code     8  usb_hcd.o(.text)
    HCD_GetURB_State                         0x0800dba3   Thumb Code     8  usb_hcd.o(.text)
    HCD_GetXferCnt                           0x0800dbab   Thumb Code    10  usb_hcd.o(.text)
    HCD_GetHCState                           0x0800dbb5   Thumb Code     8  usb_hcd.o(.text)
    HCD_HC_Init                              0x0800dbbd   Thumb Code     4  usb_hcd.o(.text)
    HCD_SubmitRequest                        0x0800dbc1   Thumb Code    20  usb_hcd.o(.text)
    USBH_OTG_ISR_Handler                     0x0800e99b   Thumb Code   168  usb_hcd_int.o(.text)
    USBH_Connected                           0x0800ea49   Thumb Code    10  usbh_core.o(.text)
    USBH_Disconnected                        0x0800ea53   Thumb Code    10  usbh_core.o(.text)
    USBH_SOF                                 0x0800ea5d   Thumb Code     4  usbh_core.o(.text)
    USBH_DeInit                              0x0800ea61   Thumb Code    52  usbh_core.o(.text)
    USBH_Init                                0x0800ea95   Thumb Code    60  usbh_core.o(.text)
    USBH_HandleControl                       0x0800ead1   Thumb Code   464  usbh_core.o(.text)
    USBH_ErrorHandle                         0x0800eca1   Thumb Code    44  usbh_core.o(.text)
    USBH_Process                             0x0800ee63   Thumb Code   386  usbh_core.o(.text)
    USBH_Open_Channel                        0x0800efed   Thumb Code    84  usbh_hcs.o(.text)
    USBH_Modify_Channel                      0x0800f041   Thumb Code    50  usbh_hcs.o(.text)
    USBH_Alloc_Channel                       0x0800f073   Thumb Code    52  usbh_hcs.o(.text)
    USBH_Free_Channel                        0x0800f0a7   Thumb Code    24  usbh_hcs.o(.text)
    USBH_DeAllocate_AllChannel               0x0800f0bf   Thumb Code    24  usbh_hcs.o(.text)
    USBH_CtlReq                              0x0800f0d7   Thumb Code    70  usbh_ioreq.o(.text)
    USBH_CtlSendSetup                        0x0800f11d   Thumb Code    40  usbh_ioreq.o(.text)
    USBH_CtlSendData                         0x0800f145   Thumb Code    54  usbh_ioreq.o(.text)
    USBH_CtlReceiveData                      0x0800f17b   Thumb Code    34  usbh_ioreq.o(.text)
    USBH_BulkSendData                        0x0800f19d   Thumb Code    44  usbh_ioreq.o(.text)
    USBH_BulkReceiveData                     0x0800f1c9   Thumb Code    40  usbh_ioreq.o(.text)
    USBH_InterruptReceiveData                0x0800f1f1   Thumb Code    52  usbh_ioreq.o(.text)
    USBH_InterruptSendData                   0x0800f225   Thumb Code    48  usbh_ioreq.o(.text)
    USBH_IsocReceiveData                     0x0800f255   Thumb Code    34  usbh_ioreq.o(.text)
    USBH_IsocSendData                        0x0800f277   Thumb Code    30  usbh_ioreq.o(.text)
    USBH_GetDescriptor                       0x0800f295   Thumb Code    48  usbh_stdreq.o(.text)
    USBH_Get_DevDesc                         0x0800f2c5   Thumb Code   156  usbh_stdreq.o(.text)
    USBH_GetNextDesc                         0x0800f361   Thumb Code    14  usbh_stdreq.o(.text)
    USBH_Get_CfgDesc                         0x0800f489   Thumb Code    84  usbh_stdreq.o(.text)
    USBH_Get_StringDesc                      0x0800f4dd   Thumb Code    72  usbh_stdreq.o(.text)
    USBH_SetAddress                          0x0800f525   Thumb Code    24  usbh_stdreq.o(.text)
    USBH_SetCfg                              0x0800f53d   Thumb Code    24  usbh_stdreq.o(.text)
    USBH_SetInterface                        0x0800f555   Thumb Code    26  usbh_stdreq.o(.text)
    USBH_ClrFeature                          0x0800f56f   Thumb Code    46  usbh_stdreq.o(.text)
    USBH_MSC_Init                            0x0800f5cd   Thumb Code    40  usbh_msc_bot.o(.text)
    USBH_MSC_BOT_Abort                       0x0800f5f5   Thumb Code    48  usbh_msc_bot.o(.text)
    USBH_MSC_DecodeCSW                       0x0800f625   Thumb Code    78  usbh_msc_bot.o(.text)
    USBH_MSC_HandleBOTXfer                   0x0800f673   Thumb Code   526  usbh_msc_bot.o(.text)
    USBH_MSC_TestUnitReady                   0x0800f89d   Thumb Code   116  usbh_msc_scsi.o(.text)
    USBH_MSC_ReadCapacity10                  0x0800f911   Thumb Code   148  usbh_msc_scsi.o(.text)
    USBH_MSC_ModeSense6                      0x0800f9a5   Thumb Code   142  usbh_msc_scsi.o(.text)
    USBH_MSC_RequestSense                    0x0800fa33   Thumb Code   146  usbh_msc_scsi.o(.text)
    USBH_MSC_Write10                         0x0800fac5   Thumb Code   146  usbh_msc_scsi.o(.text)
    USBH_MSC_Read10                          0x0800fb57   Thumb Code   202  usbh_msc_scsi.o(.text)
    USB_OTG_BSP_Init                         0x0800fc35   Thumb Code   108  usb_bsp.o(.text)
    USB_OTG_BSP_EnableInterrupt              0x0800fca1   Thumb Code    34  usb_bsp.o(.text)
    USB_OTG_BSP_DisableInterrupt             0x0800fcc3   Thumb Code     2  usb_bsp.o(.text)
    USB_OTG_BSP_DriveVBUS                    0x0800fcc5   Thumb Code     2  usb_bsp.o(.text)
    USB_OTG_BSP_ConfigVBUS                   0x0800fcc7   Thumb Code     2  usb_bsp.o(.text)
    USB_OTG_BSP_uDelay                       0x0800fcc9   Thumb Code     4  usb_bsp.o(.text)
    USB_OTG_BSP_mDelay                       0x0800fccd   Thumb Code     6  usb_bsp.o(.text)
    OTG_FS_IRQHandler                        0x0800fcdd   Thumb Code     6  usbh_usr.o(.text)
    USBH_USR_Init                            0x0800fce3   Thumb Code    24  usbh_usr.o(.text)
    USBH_USR_DeviceAttached                  0x0800fcfb   Thumb Code    14  usbh_usr.o(.text)
    USBH_USR_UnrecoveredError                0x0800fd09   Thumb Code     6  usbh_usr.o(.text)
    USBH_USR_DeviceDisconnected              0x0800fd0f   Thumb Code    14  usbh_usr.o(.text)
    USBH_USR_ResetDevice                     0x0800fd1d   Thumb Code     6  usbh_usr.o(.text)
    USBH_USR_DeviceSpeedDetected             0x0800fd23   Thumb Code    28  usbh_usr.o(.text)
    USBH_USR_Device_DescAvailable            0x0800fd3f   Thumb Code    24  usbh_usr.o(.text)
    USBH_USR_DeviceAddressAssigned           0x0800fd57   Thumb Code     6  usbh_usr.o(.text)
    USBH_USR_Configuration_DescAvailable     0x0800fd5d   Thumb Code    22  usbh_usr.o(.text)
    USBH_USR_Manufacturer_String             0x0800fd73   Thumb Code     8  usbh_usr.o(.text)
    USBH_USR_Product_String                  0x0800fd7b   Thumb Code     8  usbh_usr.o(.text)
    USBH_USR_SerialNum_String                0x0800fd83   Thumb Code     8  usbh_usr.o(.text)
    USBH_USR_EnumerationDone                 0x0800fd8b   Thumb Code     6  usbh_usr.o(.text)
    USBH_USR_DeviceNotSupported              0x0800fd91   Thumb Code     6  usbh_usr.o(.text)
    USBH_USR_UserInput                       0x0800fd97   Thumb Code    12  usbh_usr.o(.text)
    USBH_USR_OverCurrentDetected             0x0800fda3   Thumb Code     6  usbh_usr.o(.text)
    USBH_USR_MSC_Application                 0x0800fda9   Thumb Code    38  usbh_usr.o(.text)
    USBH_USR_DeInit                          0x0800fdcf   Thumb Code     8  usbh_usr.o(.text)
    USBH_UDISK_Status                        0x0800fdd7   Thumb Code    12  usbh_usr.o(.text)
    USBH_UDISK_Read                          0x0800fde3   Thumb Code    74  usbh_usr.o(.text)
    USBH_UDISK_Write                         0x0800fe2d   Thumb Code    72  usbh_usr.o(.text)
    Get_HzMat                                0x08010069   Thumb Code   136  text.o(.text)
    Show_Font                                0x080100f1   Thumb Code   156  text.o(.text)
    Show_Str                                 0x0801018d   Thumb Code   172  text.o(.text)
    Show_Str_Mid                             0x08010239   Thumb Code    82  text.o(.text)
    stdbmp_decode                            0x0801029d   Thumb Code   506  bmp.o(.text)
    minibmp_decode                           0x08010497   Thumb Code   720  bmp.o(.text)
    bmp_encode                               0x08010767   Thumb Code   414  bmp.o(.text)
    gif_check_head                           0x08010911   Thumb Code    78  gif.o(.text)
    gif_getrgb565                            0x0801095f   Thumb Code    24  gif.o(.text)
    gif_readcolortbl                         0x08010977   Thumb Code    58  gif.o(.text)
    gif_getinfo                              0x080109b1   Thumb Code    54  gif.o(.text)
    gif_savegctbl                            0x080109e7   Thumb Code    22  gif.o(.text)
    gif_recovergctbl                         0x080109fd   Thumb Code    22  gif.o(.text)
    gif_initlzw                              0x08010a13   Thumb Code   138  gif.o(.text)
    gif_getdatablock                         0x08010a9d   Thumb Code    58  gif.o(.text)
    gif_readextension                        0x08010ad7   Thumb Code   130  gif.o(.text)
    gif_getnextcode                          0x08010b59   Thumb Code   288  gif.o(.text)
    gif_getnextbyte                          0x08010c79   Thumb Code   572  gif.o(.text)
    gif_dispimage                            0x08010eb5   Thumb Code   420  gif.o(.text)
    gif_clear2bkcolor                        0x08011059   Thumb Code   324  gif.o(.text)
    gif_drawimage                            0x0801119d   Thumb Code   284  gif.o(.text)
    gif_quit                                 0x080112b9   Thumb Code     8  gif.o(.text)
    gif_decode                               0x080112c1   Thumb Code   258  gif.o(.text)
    piclib_draw_hline                        0x080113cd   Thumb Code    38  piclib.o(.text)
    piclib_fill_color                        0x080113f3   Thumb Code    24  piclib.o(.text)
    piclib_init                              0x0801140b   Thumb Code    60  piclib.o(.text)
    piclib_alpha_blend                       0x08011447   Thumb Code    32  piclib.o(.text)
    ai_draw_init                             0x08011467   Thumb Code   166  piclib.o(.text)
    is_element_ok                            0x0801150d   Thumb Code    34  piclib.o(.text)
    ai_load_picfile                          0x0801152f   Thumb Code   130  piclib.o(.text)
    pic_memalloc                             0x080115b1   Thumb Code     8  piclib.o(.text)
    pic_memfree                              0x080115b9   Thumb Code     8  piclib.o(.text)
    jd_prepare                               0x08011df9   Thumb Code   712  tjpgd.o(.text)
    jd_decomp                                0x080120c1   Thumb Code   228  tjpgd.o(.text)
    jpeg_mallocall                           0x080121a5   Thumb Code    46  tjpgd.o(.text)
    jpeg_freeall                             0x080121d3   Thumb Code    26  tjpgd.o(.text)
    jpeg_in_func                             0x080121ed   Thumb Code    36  tjpgd.o(.text)
    jpeg_out_func_fill                       0x08012211   Thumb Code    50  tjpgd.o(.text)
    jpeg_out_func_point                      0x08012243   Thumb Code   160  tjpgd.o(.text)
    jpg_decode                               0x080122e3   Thumb Code   182  tjpgd.o(.text)
    __use_no_semihosting                     0x080123c5   Thumb Code     2  use_no_semi_2.o(.text)
    __aeabi_ldivmod                          0x080123c7   Thumb Code     0  llsdiv.o(.text)
    _ll_sdiv                                 0x080123c7   Thumb Code    72  llsdiv.o(.text)
    __2printf                                0x08012411   Thumb Code    20  noretval__2printf.o(.text)
    _printf_pre_padding                      0x08012429   Thumb Code    44  _printf_pad.o(.text)
    _printf_post_padding                     0x08012455   Thumb Code    34  _printf_pad.o(.text)
    _printf_str                              0x08012477   Thumb Code    82  _printf_str.o(.text)
    _printf_int_dec                          0x080124c9   Thumb Code   104  _printf_dec.o(.text)
    _printf_int_hex                          0x08012541   Thumb Code    84  _printf_hex_int.o(.text)
    _printf_longlong_hex                     0x08012541   Thumb Code     0  _printf_hex_int.o(.text)
    __printf                                 0x08012599   Thumb Code   388  __printf_flags_ss_wp.o(.text)
    strcpy                                   0x08012721   Thumb Code    72  strcpy.o(.text)
    strlen                                   0x08012769   Thumb Code    62  strlen.o(.text)
    __aeabi_memcpy                           0x080127a7   Thumb Code     0  rt_memcpy_v6.o(.text)
    __rt_memcpy                              0x080127a7   Thumb Code   138  rt_memcpy_v6.o(.text)
    _memcpy_lastbytes                        0x0801280d   Thumb Code     0  rt_memcpy_v6.o(.text)
    strcmp                                   0x08012831   Thumb Code   128  strcmpv7m.o(.text)
    __use_two_region_memory                  0x080128b1   Thumb Code     2  heapauxi.o(.text)
    __rt_heap_escrow$2region                 0x080128b3   Thumb Code     2  heapauxi.o(.text)
    __rt_heap_expand$2region                 0x080128b5   Thumb Code     2  heapauxi.o(.text)
    __I$use$semihosting                      0x080128b7   Thumb Code     0  use_no_semi.o(.text)
    __use_no_semihosting_swi                 0x080128b7   Thumb Code     2  use_no_semi.o(.text)
    __aeabi_uldivmod                         0x080128b9   Thumb Code     0  lludivv7m.o(.text)
    _ll_udiv                                 0x080128b9   Thumb Code   238  lludivv7m.o(.text)
    _printf_int_common                       0x080129a7   Thumb Code   178  _printf_intcommon.o(.text)
    _printf_cs_common                        0x08012a59   Thumb Code    20  _printf_char.o(.text)
    _printf_char                             0x08012a6d   Thumb Code    16  _printf_char.o(.text)
    _printf_string                           0x08012a7d   Thumb Code     8  _printf_char.o(.text)
    _printf_char_file                        0x08012a85   Thumb Code    32  _printf_char_file.o(.text)
    __aeabi_memcpy4                          0x08012aa9   Thumb Code     0  rt_memcpy_w.o(.text)
    __aeabi_memcpy8                          0x08012aa9   Thumb Code     0  rt_memcpy_w.o(.text)
    __rt_memcpy_w                            0x08012aa9   Thumb Code   100  rt_memcpy_w.o(.text)
    _memcpy_lastbytes_aligned                0x08012af1   Thumb Code     0  rt_memcpy_w.o(.text)
    _printf_char_common                      0x08012b17   Thumb Code    32  _printf_char_common.o(.text)
    ferror                                   0x08012b3d   Thumb Code     8  ferror.o(.text)
    __user_libspace                          0x08012b45   Thumb Code     8  libspace.o(.text)
    __user_perproc_libspace                  0x08012b45   Thumb Code     0  libspace.o(.text)
    __user_perthread_libspace                0x08012b45   Thumb Code     0  libspace.o(.text)
    __user_setup_stackheap                   0x08012b4d   Thumb Code    74  sys_stackheap_outer.o(.text)
    exit                                     0x08012b97   Thumb Code    12  exit.o(.text)
    _is_digit                                0x08012ba3   Thumb Code    14  __printf_wp.o(i._is_digit)
    __aeabi_d2uiz                            0x08012bb1   Thumb Code     0  dfixu.o(x$fpl$dfixu)
    _dfixu                                   0x08012bb1   Thumb Code    90  dfixu.o(x$fpl$dfixu)
    __aeabi_ui2d                             0x08012c0b   Thumb Code     0  dflt_clz.o(x$fpl$dfltu)
    _dfltu                                   0x08012c0b   Thumb Code    38  dflt_clz.o(x$fpl$dfltu)
    __aeabi_dmul                             0x08012c31   Thumb Code     0  dmul.o(x$fpl$dmul)
    _dmul                                    0x08012c31   Thumb Code   332  dmul.o(x$fpl$dmul)
    __fpl_dnaninf                            0x08012d85   Thumb Code   156  dnaninf.o(x$fpl$dnaninf)
    __fpl_dretinf                            0x08012e21   Thumb Code    12  dretinf.o(x$fpl$dretinf)
    _fp_init                                 0x08012e2d   Thumb Code    10  fpinit.o(x$fpl$fpinit)
    __fplib_config_fpu_vfp                   0x08012e35   Thumb Code     0  fpinit.o(x$fpl$fpinit)
    __fplib_config_pureend_doubles           0x08012e35   Thumb Code     0  fpinit.o(x$fpl$fpinit)
    __I$use$fp                               0x08012e36   Number         0  usenofp.o(x$fpl$usenofp)
    asc2_1206                                0x08012e36   Data        1140  lcd.o(.constdata)
    asc2_1608                                0x080132aa   Data        1520  lcd.o(.constdata)
    asc2_2412                                0x0801389a   Data        3420  lcd.o(.constdata)
    FSMC_DefaultTimingStruct                 0x080145f8   Data          28  stm32f4xx_fsmc.o(.constdata)
    memtblsize                               0x08014614   Data          12  malloc.o(.constdata)
    memblksize                               0x08014620   Data          12  malloc.o(.constdata)
    memsize                                  0x0801462c   Data          12  malloc.o(.constdata)
    FILE_TYPE_TBL                            0x08014674   Data         112  exfuns.o(.constdata)
    _aInterlaceOffset                        0x0803f3ac   Data           4  gif.o(.constdata)
    _aInterlaceYPos                          0x0803f3b0   Data           4  gif.o(.constdata)
    _aMaskTbl                                0x0803f3b4   Data          32  gif.o(.constdata)
    Region$$Table$$Base                      0x0803fbf8   Number         0  anon$$obj.o(Region$$Table)
    Region$$Table$$Limit                     0x0803fc18   Number         0  anon$$obj.o(Region$$Table)
    mem3base                                 0x10000000   Data       61440  malloc.o(.ARM.__AT_0x10000000)
    mem3mapbase                              0x1000f000   Data        3840  malloc.o(.ARM.__AT_0x1000F000)
    res1                                     0x20000000   Data           1  main.o(.data)
    BWW                                      0x20000004   Data           4  main.o(.data)
    SystemCoreClock                          0x20000008   Data           4  system_stm32f4xx.o(.data)
    AHBPrescTable                            0x2000000c   Data          16  system_stm32f4xx.o(.data)
    POINT_COLOR                              0x2000001e   Data           2  lcd.o(.data)
    BACK_COLOR                               0x20000020   Data           2  lcd.o(.data)
    dis_data                                 0x20000024   Data           4  mma8452q.o(.data)
    x                                        0x20000028   Data           4  mma8452q.o(.data)
    y                                        0x2000002c   Data           4  mma8452q.o(.data)
    z                                        0x20000030   Data           4  mma8452q.o(.data)
    BUF                                      0x20000034   Data           8  mma8452q.o(.data)
    W25QXX_TYPE                              0x2000003c   Data           2  w25qxx.o(.data)
    TransferError                            0x20000043   Data           1  sdio_sdcard.o(.data)
    TransferEnd                              0x20000044   Data           1  sdio_sdcard.o(.data)
    tempbuff                                 0x2000004c   Data           4  sdio_sdcard.o(.data)
    USART_RX_STA                             0x20000054   Data           2  usart.o(.data)
    USART6_RX_STA                            0x20000056   Data           2  usart.o(.data)
    __stdout                                 0x20000058   Data           4  usart.o(.data)
    sys_cmd_tab                              0x2000006c   Data          28  usmart.o(.data)
    usmart_nametab                           0x20000088   Data         216  usmart_config.o(.data)
    usmart_dev                               0x20000160   Data         244  usmart_config.o(.data)
    mallco_dev                               0x20000254   Data          36  malloc.o(.data)
    FLASH_SECTOR_COUNT                       0x20000278   Data           2  diskio.o(.data)
    file                                     0x2000027c   Data           4  exfuns.o(.data)
    ftemp                                    0x20000280   Data           4  exfuns.o(.data)
    fatbuf                                   0x20000284   Data           4  exfuns.o(.data)
    br                                       0x20000288   Data           4  exfuns.o(.data)
    bw                                       0x2000028c   Data           4  exfuns.o(.data)
    USBH_HCD_INT_cb                          0x20000290   Data          12  usbh_core.o(.data)
    USBH_HCD_INT_fops                        0x2000029c   Data           4  usbh_core.o(.data)
    MSCErrorCount                            0x200002bc   Data           1  usbh_msc_core.o(.data)
    gifdecoding                              0x200002c0   Data           1  gif.o(.data)
    f_jpeg                                   0x200002c4   Data           4  tjpgd.o(.data)
    jpeg_dev                                 0x200002c8   Data           4  tjpgd.o(.data)
    jpg_buffer                               0x200002cc   Data           4  tjpgd.o(.data)
    file1                                    0x200002d0   Data         552  main.o(.bss)
    USB_OTG_Core                             0x200004f8   Data        1452  main.o(.bss)
    USB_Host                                 0x20000aa4   Data         132  main.o(.bss)
    lcddev                                   0x20000b28   Data          14  lcd.o(.bss)
    W25QXX_BUFFER                            0x20000b36   Data        4096  w25qxx.o(.bss)
    SDIO_InitStructure                       0x20001b38   Data          24  sdio_sdcard.o(.bss)
    SDIO_CmdInitStructure                    0x20001b50   Data          20  sdio_sdcard.o(.bss)
    SDIO_DataInitStructure                   0x20001b64   Data          24  sdio_sdcard.o(.bss)
    SDCardInfo                               0x20001ba0   Data          88  sdio_sdcard.o(.bss)
    SDIO_DATA_BUFFER                         0x20001bf8   Data         512  sdio_sdcard.o(.bss)
    USART_RX_BUF                             0x20001df8   Data         200  usart.o(.bss)
    USART6_RX_BUF                            0x20001ec0   Data         200  usart.o(.bss)
    mem1base                                 0x20001fa0   Data       102400  malloc.o(.bss)
    mem1mapbase                              0x2001afa0   Data        6400  malloc.o(.bss)
    fs                                       0x2001c8ac   Data          12  exfuns.o(.bss)
    fileinfo                                 0x2001c8b8   Data          32  exfuns.o(.bss)
    dir                                      0x2001c8d8   Data          36  exfuns.o(.bss)
    USBH_CfgDesc                             0x2001c8fc   Data         512  usbh_stdreq.o(.bss)
    USBH_MSC_CBWData                         0x2001cafc   Data          32  usbh_msc_bot.o(.bss)
    USBH_MSC_CSWData                         0x2001cb1c   Data          16  usbh_msc_bot.o(.bss)
    USBH_MSC_BOTXferParam                    0x2001cb2c   Data          16  usbh_msc_bot.o(.bss)
    MSC_Machine                              0x2001cb3c   Data          74  usbh_msc_core.o(.bss)
    USBH_MSC_Param                           0x2001cb88   Data          16  usbh_msc_scsi.o(.bss)
    USBH_DataInBuffer                        0x2001cb98   Data         512  usbh_msc_scsi.o(.bss)
    ftinfo                                   0x2001cd98   Data          33  fontupd.o(.bss)
    picinfo                                  0x2001cdbc   Data          40  piclib.o(.bss)
    pic_phy                                  0x2001cde4   Data          20  piclib.o(.bss)
    __libspace_start                         0x2001cdf8   Data          96  libspace.o(.bss)
    __temporary_stack_top$libspace           0x2001ce58   Data           0  libspace.o(.bss)
    mem2base                                 0x68000000   Data       983040  malloc.o(.ARM.__AT_0x68000000)
    mem2mapbase                              0x680f0000   Data       61440  malloc.o(.ARM.__AT_0x680F0000)



==============================================================================

Memory Map of the image

  Image Entry point : 0x08000189

  Load Region LR_IROM1 (Base: 0x08000000, Size: 0x0003fee8, Max: 0x00100000, ABSOLUTE, COMPRESSED[0x0003fd40])

    Execution Region ER_IROM1 (Base: 0x08000000, Size: 0x0003fc18, Max: 0x00100000, ABSOLUTE)

    Base Addr    Size         Type   Attr      Idx    E Section Name        Object

    0x08000000   0x00000188   Data   RO          816    RESET               startup_stm32f40_41xxx.o
    0x08000188   0x00000008   Code   RO         1891  * !!!main             c_w.l(__main.o)
    0x08000190   0x00000034   Code   RO         2207    !!!scatter          c_w.l(__scatter.o)
    0x080001c4   0x0000005a   Code   RO         2205    !!dczerorl2         c_w.l(__dczerorl2.o)
    0x0800021e   0x00000002   PAD
    0x08000220   0x0000001c   Code   RO         2209    !!handler_zi        c_w.l(__scatter_zi.o)
    0x0800023c   0x00000000   Code   RO         1874    .ARM.Collect$$_printf_percent$$00000000  c_w.l(_printf_percent.o)
    0x0800023c   0x00000006   Code   RO         1872    .ARM.Collect$$_printf_percent$$00000009  c_w.l(_printf_d.o)
    0x08000242   0x00000006   Code   RO         1873    .ARM.Collect$$_printf_percent$$0000000A  c_w.l(_printf_u.o)
    0x08000248   0x00000006   Code   RO         1871    .ARM.Collect$$_printf_percent$$0000000C  c_w.l(_printf_x.o)
    0x0800024e   0x00000006   Code   RO         1869    .ARM.Collect$$_printf_percent$$00000013  c_w.l(_printf_c.o)
    0x08000254   0x00000006   Code   RO         1870    .ARM.Collect$$_printf_percent$$00000014  c_w.l(_printf_s.o)
    0x0800025a   0x00000004   Code   RO         1958    .ARM.Collect$$_printf_percent$$00000017  c_w.l(_printf_percent_end.o)
    0x0800025e   0x00000002   Code   RO         2077    .ARM.Collect$$libinit$$00000000  c_w.l(libinit.o)
    0x08000260   0x00000004   Code   RO         2086    .ARM.Collect$$libinit$$00000001  c_w.l(libinit2.o)
    0x08000264   0x00000000   Code   RO         2089    .ARM.Collect$$libinit$$00000004  c_w.l(libinit2.o)
    0x08000264   0x00000000   Code   RO         2092    .ARM.Collect$$libinit$$0000000A  c_w.l(libinit2.o)
    0x08000264   0x00000000   Code   RO         2094    .ARM.Collect$$libinit$$0000000C  c_w.l(libinit2.o)
    0x08000264   0x00000000   Code   RO         2096    .ARM.Collect$$libinit$$0000000E  c_w.l(libinit2.o)
    0x08000264   0x00000000   Code   RO         2099    .ARM.Collect$$libinit$$00000011  c_w.l(libinit2.o)
    0x08000264   0x00000000   Code   RO         2101    .ARM.Collect$$libinit$$00000013  c_w.l(libinit2.o)
    0x08000264   0x00000000   Code   RO         2103    .ARM.Collect$$libinit$$00000015  c_w.l(libinit2.o)
    0x08000264   0x00000000   Code   RO         2105    .ARM.Collect$$libinit$$00000017  c_w.l(libinit2.o)
    0x08000264   0x00000000   Code   RO         2107    .ARM.Collect$$libinit$$00000019  c_w.l(libinit2.o)
    0x08000264   0x00000000   Code   RO         2109    .ARM.Collect$$libinit$$0000001B  c_w.l(libinit2.o)
    0x08000264   0x00000000   Code   RO         2111    .ARM.Collect$$libinit$$0000001D  c_w.l(libinit2.o)
    0x08000264   0x00000000   Code   RO         2113    .ARM.Collect$$libinit$$0000001F  c_w.l(libinit2.o)
    0x08000264   0x00000000   Code   RO         2115    .ARM.Collect$$libinit$$00000021  c_w.l(libinit2.o)
    0x08000264   0x00000000   Code   RO         2117    .ARM.Collect$$libinit$$00000023  c_w.l(libinit2.o)
    0x08000264   0x00000000   Code   RO         2119    .ARM.Collect$$libinit$$00000025  c_w.l(libinit2.o)
    0x08000264   0x00000000   Code   RO         2123    .ARM.Collect$$libinit$$0000002C  c_w.l(libinit2.o)
    0x08000264   0x00000000   Code   RO         2125    .ARM.Collect$$libinit$$0000002E  c_w.l(libinit2.o)
    0x08000264   0x00000000   Code   RO         2127    .ARM.Collect$$libinit$$00000030  c_w.l(libinit2.o)
    0x08000264   0x00000000   Code   RO         2129    .ARM.Collect$$libinit$$00000032  c_w.l(libinit2.o)
    0x08000264   0x00000002   Code   RO         2130    .ARM.Collect$$libinit$$00000033  c_w.l(libinit2.o)
    0x08000266   0x00000002   Code   RO         2158    .ARM.Collect$$libshutdown$$00000000  c_w.l(libshutdown.o)
    0x08000268   0x00000000   Code   RO         2173    .ARM.Collect$$libshutdown$$00000003  c_w.l(libshutdown2.o)
    0x08000268   0x00000000   Code   RO         2176    .ARM.Collect$$libshutdown$$00000006  c_w.l(libshutdown2.o)
    0x08000268   0x00000000   Code   RO         2179    .ARM.Collect$$libshutdown$$00000009  c_w.l(libshutdown2.o)
    0x08000268   0x00000000   Code   RO         2181    .ARM.Collect$$libshutdown$$0000000B  c_w.l(libshutdown2.o)
    0x08000268   0x00000000   Code   RO         2184    .ARM.Collect$$libshutdown$$0000000E  c_w.l(libshutdown2.o)
    0x08000268   0x00000002   Code   RO         2185    .ARM.Collect$$libshutdown$$0000000F  c_w.l(libshutdown2.o)
    0x0800026a   0x00000000   Code   RO         1947    .ARM.Collect$$rtentry$$00000000  c_w.l(__rtentry.o)
    0x0800026a   0x00000000   Code   RO         2026    .ARM.Collect$$rtentry$$00000002  c_w.l(__rtentry2.o)
    0x0800026a   0x00000006   Code   RO         2038    .ARM.Collect$$rtentry$$00000004  c_w.l(__rtentry4.o)
    0x08000270   0x00000000   Code   RO         2028    .ARM.Collect$$rtentry$$00000009  c_w.l(__rtentry2.o)
    0x08000270   0x00000004   Code   RO         2029    .ARM.Collect$$rtentry$$0000000A  c_w.l(__rtentry2.o)
    0x08000274   0x00000000   Code   RO         2031    .ARM.Collect$$rtentry$$0000000C  c_w.l(__rtentry2.o)
    0x08000274   0x00000008   Code   RO         2032    .ARM.Collect$$rtentry$$0000000D  c_w.l(__rtentry2.o)
    0x0800027c   0x00000002   Code   RO         2080    .ARM.Collect$$rtexit$$00000000  c_w.l(rtexit.o)
    0x0800027e   0x00000000   Code   RO         2132    .ARM.Collect$$rtexit$$00000002  c_w.l(rtexit2.o)
    0x0800027e   0x00000004   Code   RO         2133    .ARM.Collect$$rtexit$$00000003  c_w.l(rtexit2.o)
    0x08000282   0x00000006   Code   RO         2134    .ARM.Collect$$rtexit$$00000004  c_w.l(rtexit2.o)
    0x08000288   0x00000010   Code   RO          766    .emb_text           sys.o
    0x08000298   0x00000254   Code   RO            3    .text               main.o
    0x080004ec   0x00000012   Code   RO          317    .text               stm32f4xx_it.o
    0x080004fe   0x00000002   PAD
    0x08000500   0x0000017c   Code   RO          366    .text               system_stm32f4xx.o
    0x0800067c   0x00000040   Code   RO          392    .text               led.o
    0x080006bc   0x00000104   Code   RO          412    .text               key.o
    0x080007c0   0x000045bc   Code   RO          433    .text               lcd.o
    0x08004d7c   0x00000224   Code   RO          472    .text               myiic.o
    0x08004fa0   0x000001d8   Code   RO          587    .text               mma8452q.o
    0x08005178   0x0000010c   Code   RO          640    .text               spi.o
    0x08005284   0x00000350   Code   RO          660    .text               w25qxx.o
    0x080055d4   0x0000178c   Code   RO          709    .text               sdio_sdcard.o
    0x08006d60   0x000000b8   Code   RO          744    .text               delay.o
    0x08006e18   0x00000220   Code   RO          784    .text               usart.o
    0x08007038   0x00000040   Code   RO          817    .text               startup_stm32f40_41xxx.o
    0x08007078   0x000000b0   Code   RO          823    .text               misc.o
    0x08007128   0x00000448   Code   RO          843    .text               stm32f4xx_fsmc.o
    0x08007570   0x0000020c   Code   RO          866    .text               stm32f4xx_gpio.o
    0x0800777c   0x00000480   Code   RO          886    .text               stm32f4xx_rcc.o
    0x08007bfc   0x00000358   Code   RO          928    .text               stm32f4xx_usart.o
    0x08007f54   0x000009dc   Code   RO          948    .text               stm32f4xx_tim.o
    0x08008930   0x0000032c   Code   RO          969    .text               stm32f4xx_spi.o
    0x08008c5c   0x000001b8   Code   RO          989    .text               stm32f4xx_sdio.o
    0x08008e14   0x00000320   Code   RO         1009    .text               stm32f4xx_dma.o
    0x08009134   0x00000b14   Code   RO         1029    .text               usmart.o
    0x08009c48   0x00000420   Code   RO         1079    .text               usmart_str.o
    0x0800a068   0x000001c4   Code   RO         1100    .text               malloc.o
    0x0800a22c   0x00000194   Code   RO         1134    .text               diskio.o
    0x0800a3c0   0x000028e8   Code   RO         1175    .text               ff.o
    0x0800cca8   0x00000128   Code   RO         1197    .text               exfuns.o
    0x0800cdd0   0x00000600   Code   RO         1231    .text               fattester.o
    0x0800d3d0   0x00000070   Code   RO         1253    .text               cc936.o
    0x0800d440   0x000006e8   Code   RO         1278    .text               usb_core.o
    0x0800db28   0x000000ac   Code   RO         1299    .text               usb_hcd.o
    0x0800dbd4   0x00000e74   Code   RO         1319    .text               usb_hcd_int.o
    0x0800ea48   0x000005a4   Code   RO         1339    .text               usbh_core.o
    0x0800efec   0x000000ea   Code   RO         1368    .text               usbh_hcs.o
    0x0800f0d6   0x000001be   Code   RO         1388    .text               usbh_ioreq.o
    0x0800f294   0x00000338   Code   RO         1408    .text               usbh_stdreq.o
    0x0800f5cc   0x000002d0   Code   RO         1436    .text               usbh_msc_bot.o
    0x0800f89c   0x00000398   Code   RO         1492    .text               usbh_msc_scsi.o
    0x0800fc34   0x000000a8   Code   RO         1520    .text               usb_bsp.o
    0x0800fcdc   0x0000038c   Code   RO         1540    .text               usbh_usr.o
    0x08010068   0x00000234   Code   RO         1601    .text               text.o
    0x0801029c   0x00000674   Code   RO         1621    .text               bmp.o
    0x08010910   0x00000abc   Code   RO         1641    .text               gif.o
    0x080113cc   0x00000210   Code   RO         1669    .text               piclib.o
    0x080115dc   0x00000de8   Code   RO         1695    .text               tjpgd.o
    0x080123c4   0x00000002   Code   RO         1812    .text               c_w.l(use_no_semi_2.o)
    0x080123c6   0x00000048   Code   RO         1814    .text               c_w.l(llsdiv.o)
    0x0801240e   0x00000002   PAD
    0x08012410   0x00000018   Code   RO         1818    .text               c_w.l(noretval__2printf.o)
    0x08012428   0x0000004e   Code   RO         1822    .text               c_w.l(_printf_pad.o)
    0x08012476   0x00000052   Code   RO         1824    .text               c_w.l(_printf_str.o)
    0x080124c8   0x00000078   Code   RO         1826    .text               c_w.l(_printf_dec.o)
    0x08012540   0x00000058   Code   RO         1831    .text               c_w.l(_printf_hex_int.o)
    0x08012598   0x00000188   Code   RO         1866    .text               c_w.l(__printf_flags_ss_wp.o)
    0x08012720   0x00000048   Code   RO         1877    .text               c_w.l(strcpy.o)
    0x08012768   0x0000003e   Code   RO         1879    .text               c_w.l(strlen.o)
    0x080127a6   0x0000008a   Code   RO         1883    .text               c_w.l(rt_memcpy_v6.o)
    0x08012830   0x00000080   Code   RO         1887    .text               c_w.l(strcmpv7m.o)
    0x080128b0   0x00000006   Code   RO         1889    .text               c_w.l(heapauxi.o)
    0x080128b6   0x00000002   Code   RO         1945    .text               c_w.l(use_no_semi.o)
    0x080128b8   0x000000ee   Code   RO         1948    .text               c_w.l(lludivv7m.o)
    0x080129a6   0x000000b2   Code   RO         1952    .text               c_w.l(_printf_intcommon.o)
    0x08012a58   0x0000002c   Code   RO         1954    .text               c_w.l(_printf_char.o)
    0x08012a84   0x00000024   Code   RO         1956    .text               c_w.l(_printf_char_file.o)
    0x08012aa8   0x00000064   Code   RO         1959    .text               c_w.l(rt_memcpy_w.o)
    0x08012b0c   0x00000030   Code   RO         2049    .text               c_w.l(_printf_char_common.o)
    0x08012b3c   0x00000008   Code   RO         2051    .text               c_w.l(ferror.o)
    0x08012b44   0x00000008   Code   RO         2061    .text               c_w.l(libspace.o)
    0x08012b4c   0x0000004a   Code   RO         2064    .text               c_w.l(sys_stackheap_outer.o)
    0x08012b96   0x0000000c   Code   RO         2070    .text               c_w.l(exit.o)
    0x08012ba2   0x0000000e   Code   RO         1859    i._is_digit         c_w.l(__printf_wp.o)
    0x08012bb0   0x0000005a   Code   RO         1905    x$fpl$dfixu         fz_wm.l(dfixu.o)
    0x08012c0a   0x00000026   Code   RO         1909    x$fpl$dfltu         fz_wm.l(dflt_clz.o)
    0x08012c30   0x00000154   Code   RO         1915    x$fpl$dmul          fz_wm.l(dmul.o)
    0x08012d84   0x0000009c   Code   RO         1965    x$fpl$dnaninf       fz_wm.l(dnaninf.o)
    0x08012e20   0x0000000c   Code   RO         1967    x$fpl$dretinf       fz_wm.l(dretinf.o)
    0x08012e2c   0x0000000a   Code   RO         2146    x$fpl$fpinit        fz_wm.l(fpinit.o)
    0x08012e36   0x00000000   Code   RO         1973    x$fpl$usenofp       fz_wm.l(usenofp.o)
    0x08012e36   0x000017c0   Data   RO          435    .constdata          lcd.o
    0x080145f6   0x00000002   PAD
    0x080145f8   0x0000001c   Data   RO          844    .constdata          stm32f4xx_fsmc.o
    0x08014614   0x00000024   Data   RO         1107    .constdata          malloc.o
    0x08014638   0x0000003a   Data   RO         1177    .constdata          ff.o
    0x08014672   0x00000002   PAD
    0x08014674   0x00000070   Data   RO         1201    .constdata          exfuns.o
    0x080146e4   0x0002acc8   Data   RO         1254    .constdata          cc936.o
    0x0803f3ac   0x00000028   Data   RO         1642    .constdata          gif.o
    0x0803f3d4   0x000004c0   Data   RO         1696    .constdata          tjpgd.o
    0x0803f894   0x00000028   Data   RO         1832    .constdata          c_w.l(_printf_hex_int.o)
    0x0803f8bc   0x00000011   Data   RO         1867    .constdata          c_w.l(__printf_flags_ss_wp.o)
    0x0803f8cd   0x00000003   PAD
    0x0803f8d0   0x00000028   Data   RO         1030    .conststring        usmart.o
    0x0803f8f8   0x000002b9   Data   RO         1054    .conststring        usmart_config.o
    0x0803fbb1   0x00000003   PAD
    0x0803fbb4   0x00000044   Data   RO         1202    .conststring        exfuns.o
    0x0803fbf8   0x00000020   Data   RO         2203    Region$$Table       anon$$obj.o


    Execution Region RW_IRAM1 (Base: 0x20000000, Size: 0x0001d458, Max: 0x00020000, ABSOLUTE, COMPRESSED[0x00000128])

    Base Addr    Size         Type   Attr      Idx    E Section Name        Object

    0x20000000   0x00000008   Data   RW           16    .data               main.o
    0x20000008   0x00000014   Data   RW          367    .data               system_stm32f4xx.o
    0x2000001c   0x00000001   Data   RW          413    .data               key.o
    0x2000001d   0x00000001   PAD
    0x2000001e   0x00000004   Data   RW          436    .data               lcd.o
    0x20000022   0x00000002   PAD
    0x20000024   0x00000018   Data   RW          588    .data               mma8452q.o
    0x2000003c   0x00000002   Data   RW          662    .data               w25qxx.o
    0x2000003e   0x00000002   PAD
    0x20000040   0x00000010   Data   RW          711    .data               sdio_sdcard.o
    0x20000050   0x00000004   Data   RW          745    .data               delay.o
    0x20000054   0x00000004   Data   RW          786    .data               usart.o
    0x20000058   0x00000004   Data   RW          787    .data               usart.o
    0x2000005c   0x00000010   Data   RW          887    .data               stm32f4xx_rcc.o
    0x2000006c   0x0000001c   Data   RW         1031    .data               usmart.o
    0x20000088   0x000000d8   Data   RW         1055    .data               usmart_config.o
    0x20000160   0x000000f4   Data   RW         1056    .data               usmart_config.o
    0x20000254   0x00000024   Data   RW         1108    .data               malloc.o
    0x20000278   0x00000002   Data   RW         1135    .data               diskio.o
    0x2000027a   0x00000002   Data   RW         1178    .data               ff.o
    0x2000027c   0x0000000c   Data   RW         1203    .data               exfuns.o
    0x20000288   0x00000004   Data   RW         1204    .data               exfuns.o
    0x2000028c   0x00000004   Data   RW         1205    .data               exfuns.o
    0x20000290   0x0000000c   Data   RW         1340    .data               usbh_core.o
    0x2000029c   0x00000004   Data   RW         1341    .data               usbh_core.o
    0x200002a0   0x00000002   Data   RW         1342    .data               usbh_core.o
    0x200002a2   0x00000004   Data   RW         1410    .data               usbh_stdreq.o
    0x200002a6   0x00000002   PAD
    0x200002a8   0x00000014   Data   RW         1438    .data               usbh_msc_bot.o
    0x200002bc   0x00000002   Data   RW         1465    .data               usbh_msc_core.o
    0x200002be   0x00000001   Data   RW         1495    .data               usbh_msc_scsi.o
    0x200002bf   0x00000001   Data   RW         1542    .data               usbh_usr.o
    0x200002c0   0x00000001   Data   RW         1643    .data               gif.o
    0x200002c1   0x00000003   PAD
    0x200002c4   0x0000000c   Data   RW         1697    .data               tjpgd.o
    0x200002d0   0x000007d4   Zero   RW            4    .bss                main.o
    0x20000aa4   0x00000084   Zero   RW            6    .bss                main.o
    0x20000b28   0x0000000e   Zero   RW          434    .bss                lcd.o
    0x20000b36   0x00001000   Zero   RW          661    .bss                w25qxx.o
    0x20001b36   0x00000002   PAD
    0x20001b38   0x000002c0   Zero   RW          710    .bss                sdio_sdcard.o
    0x20001df8   0x00000190   Zero   RW          785    .bss                usart.o
    0x20001f88   0x00000018   PAD
    0x20001fa0   0x00019000   Zero   RW         1105    .bss                malloc.o
    0x2001afa0   0x00001900   Zero   RW         1106    .bss                malloc.o
    0x2001c8a0   0x0000000c   Zero   RW         1176    .bss                ff.o
    0x2001c8ac   0x0000000c   Zero   RW         1198    .bss                exfuns.o
    0x2001c8b8   0x00000020   Zero   RW         1199    .bss                exfuns.o
    0x2001c8d8   0x00000024   Zero   RW         1200    .bss                exfuns.o
    0x2001c8fc   0x00000200   Zero   RW         1409    .bss                usbh_stdreq.o
    0x2001cafc   0x00000040   Zero   RW         1437    .bss                usbh_msc_bot.o
    0x2001cb3c   0x0000004a   Zero   RW         1464    .bss                usbh_msc_core.o
    0x2001cb86   0x00000002   PAD
    0x2001cb88   0x00000210   Zero   RW         1493    .bss                usbh_msc_scsi.o
    0x2001cd98   0x00000021   Zero   RW         1570    .bss                fontupd.o
    0x2001cdb9   0x00000003   PAD
    0x2001cdbc   0x0000003c   Zero   RW         1670    .bss                piclib.o
    0x2001cdf8   0x00000060   Zero   RW         2062    .bss                c_w.l(libspace.o)
    0x2001ce58   0x00000200   Zero   RW          815    HEAP                startup_stm32f40_41xxx.o
    0x2001d058   0x00000400   Zero   RW          814    STACK               startup_stm32f40_41xxx.o



  Load Region LR$$.ARM.__AT_0x10000000 (Base: 0x10000000, Size: 0x00000000, Max: 0x0000f000, ABSOLUTE)

    Execution Region ER$$.ARM.__AT_0x10000000 (Base: 0x10000000, Size: 0x0000f000, Max: 0x0000f000, ABSOLUTE, UNINIT)

    Base Addr    Size         Type   Attr      Idx    E Section Name        Object

    0x10000000   0x0000f000   Zero   RW         1101    .ARM.__AT_0x10000000  malloc.o



  Load Region LR$$.ARM.__AT_0x1000F000 (Base: 0x1000f000, Size: 0x00000000, Max: 0x00000f00, ABSOLUTE)

    Execution Region ER$$.ARM.__AT_0x1000F000 (Base: 0x1000f000, Size: 0x00000f00, Max: 0x00000f00, ABSOLUTE, UNINIT)

    Base Addr    Size         Type   Attr      Idx    E Section Name        Object

    0x1000f000   0x00000f00   Zero   RW         1102    .ARM.__AT_0x1000F000  malloc.o



  Load Region LR$$.ARM.__AT_0x68000000 (Base: 0x68000000, Size: 0x00000000, Max: 0x000f0000, ABSOLUTE)

    Execution Region ER$$.ARM.__AT_0x68000000 (Base: 0x68000000, Size: 0x000f0000, Max: 0x000f0000, ABSOLUTE, UNINIT)

    Base Addr    Size         Type   Attr      Idx    E Section Name        Object

    0x68000000   0x000f0000   Zero   RW         1103    .ARM.__AT_0x68000000  malloc.o



  Load Region LR$$.ARM.__AT_0x680F0000 (Base: 0x680f0000, Size: 0x00000000, Max: 0x0000f000, ABSOLUTE)

    Execution Region ER$$.ARM.__AT_0x680F0000 (Base: 0x680f0000, Size: 0x0000f000, Max: 0x0000f000, ABSOLUTE, UNINIT)

    Base Addr    Size         Type   Attr      Idx    E Section Name        Object

    0x680f0000   0x0000f000   Zero   RW         1104    .ARM.__AT_0x680F0000  malloc.o


==============================================================================

Image component sizes


      Code (inc. data)   RO Data    RW Data    ZI Data      Debug   Object Name

      1652         20          0          0          0       3834   bmp.o
       112         16     175304          0          0       1953   cc936.o
       184          4          0          4          0       1341   delay.o
       404         14          0          2          0      14030   diskio.o
       296         14        180         20         80       2562   exfuns.o
      1536        684          0          0          0       4884   fattester.o
     10472        136         58          2         12      27572   ff.o
         0          0          0          0         33       1461   fontupd.o
      2748         18         40          1          0       8592   gif.o
       260         12          0          1          0        924   key.o
     17852        114       6080          4         14      21068   lcd.o
        64          6          0          0          0        547   led.o
       596        180          0          8       2136     366307   main.o
       452         10         36         36    1218560       4279   malloc.o
       176         12          0          0          0       1773   misc.o
       472          4          0         24          0       3124   mma8452q.o
       548          8          0          0          0       1920   myiic.o
       528         28          0          0         60       4151   piclib.o
      6028        120          0         16        704      23519   sdio_sdcard.o
       268         10          0          0          0       1025   spi.o
        64         26        392          0       1536        844   startup_stm32f40_41xxx.o
       800         32          0          0          0       6009   stm32f4xx_dma.o
      1096         10         28          0          0       5326   stm32f4xx_fsmc.o
       524         44          0          0          0       3749   stm32f4xx_gpio.o
        18          0          0          0          0       1218   stm32f4xx_it.o
      1152         48          0         16          0      11544   stm32f4xx_rcc.o
       440         14          0          0          0       6964   stm32f4xx_sdio.o
       812         36          0          0          0       6017   stm32f4xx_spi.o
      2524         52          0          0          0      18254   stm32f4xx_tim.o
       856         32          0          0          0       6740   stm32f4xx_usart.o
        16          0          0          0          0        496   sys.o
       380         36          0         20          0       1831   system_stm32f4xx.o
       564         18          0          0          0       2384   text.o
      3560         50       1216         12          0      13281   tjpgd.o
       544         26          0          8        400       3947   usart.o
       168         10          0          0          0       2143   usb_bsp.o
      1768         12          0          0          0       8824   usb_core.o
       172          0          0          0          0       2632   usb_hcd.o
      3700         10          0          0          0       6699   usb_hcd_int.o
      1444         42          0         18          0       5989   usbh_core.o
       234          0          0          0          0       2312   usbh_hcs.o
       446          0          0          0          0       3620   usbh_ioreq.o
       720         38          0         20         64       5359   usbh_msc_bot.o
         0          0          0          2         74       3645   usbh_msc_core.o
       920         20          0          1        528       4830   usbh_msc_scsi.o
       824         10          0          4        512       4683   usbh_stdreq.o
       908        500          0          1          0       4649   usbh_usr.o
      2836       1292         40         28          0       4356   usmart.o
         0          0        697        460          0       1628   usmart_config.o
      1056         12          0          0          0       4719   usmart_str.o
       848         20          0          2       4096       4227   w25qxx.o

    ----------------------------------------------------------------------
     74044       3800     184110        720    1228840     653785   Object Totals
         0          0         32          0          0          0   (incl. Generated)
         2          0          7         10         31          0   (incl. Padding)

    ----------------------------------------------------------------------

      Code (inc. data)   RO Data    RW Data    ZI Data      Debug   Library Member Name

        90          0          0          0          0          0   __dczerorl2.o
         8          0          0          0          0         68   __main.o
       392          4         17          0          0         92   __printf_flags_ss_wp.o
        14          0          0          0          0         68   __printf_wp.o
         0          0          0          0          0          0   __rtentry.o
        12          0          0          0          0          0   __rtentry2.o
         6          0          0          0          0          0   __rtentry4.o
        52          8          0          0          0          0   __scatter.o
        28          0          0          0          0          0   __scatter_zi.o
         6          0          0          0          0          0   _printf_c.o
        44          0          0          0          0        108   _printf_char.o
        48          6          0          0          0         96   _printf_char_common.o
        36          4          0          0          0         80   _printf_char_file.o
         6          0          0          0          0          0   _printf_d.o
       120         16          0          0          0         92   _printf_dec.o
        88          4         40          0          0         88   _printf_hex_int.o
       178          0          0          0          0         88   _printf_intcommon.o
        78          0          0          0          0        108   _printf_pad.o
         0          0          0          0          0          0   _printf_percent.o
         4          0          0          0          0          0   _printf_percent_end.o
         6          0          0          0          0          0   _printf_s.o
        82          0          0          0          0         80   _printf_str.o
         6          0          0          0          0          0   _printf_u.o
         6          0          0          0          0          0   _printf_x.o
        12          0          0          0          0         72   exit.o
         8          0          0          0          0         68   ferror.o
         6          0          0          0          0        152   heapauxi.o
         2          0          0          0          0          0   libinit.o
         6          0          0          0          0          0   libinit2.o
         2          0          0          0          0          0   libshutdown.o
         2          0          0          0          0          0   libshutdown2.o
         8          4          0          0         96         68   libspace.o
        72          0          0          0          0         76   llsdiv.o
       238          0          0          0          0        100   lludivv7m.o
        24          4          0          0          0         84   noretval__2printf.o
       138          0          0          0          0         68   rt_memcpy_v6.o
       100          0          0          0          0         80   rt_memcpy_w.o
         2          0          0          0          0          0   rtexit.o
        10          0          0          0          0          0   rtexit2.o
       128          0          0          0          0         68   strcmpv7m.o
        72          0          0          0          0         80   strcpy.o
        62          0          0          0          0         76   strlen.o
        74          0          0          0          0         80   sys_stackheap_outer.o
         2          0          0          0          0         68   use_no_semi.o
         2          0          0          0          0         68   use_no_semi_2.o
        90          4          0          0          0        140   dfixu.o
        38          0          0          0          0        116   dflt_clz.o
       340         12          0          0          0        152   dmul.o
       156          4          0          0          0        140   dnaninf.o
        12          0          0          0          0        116   dretinf.o
        10          0          0          0          0        116   fpinit.o
         0          0          0          0          0          0   usenofp.o

    ----------------------------------------------------------------------
      2930         70         60          0         96       2956   Library Totals
         4          0          3          0          0          0   (incl. Padding)

    ----------------------------------------------------------------------

      Code (inc. data)   RO Data    RW Data    ZI Data      Debug   Library Name

      2280         50         57          0         96       2176   c_w.l
       646         20          0          0          0        780   fz_wm.l

    ----------------------------------------------------------------------
      2930         70         60          0         96       2956   Library Totals

    ----------------------------------------------------------------------

==============================================================================


      Code (inc. data)   RO Data    RW Data    ZI Data      Debug   

     76974       3870     184170        720    1228936     643497   Grand Totals
     76974       3870     184170        296    1228936     643497   ELF Image Totals (compressed)
     76974       3870     184170        296          0          0   ROM Totals

==============================================================================

    Total RO  Size (Code + RO Data)               261144 ( 255.02kB)
    Total RW  Size (RW Data + ZI Data)           1229656 (1200.84kB)
    Total ROM Size (Code + RO Data + RW Data)     261440 ( 255.31kB)

==============================================================================

